***********************************************************************
*
*	CODE GENERATION LISTING FOR: TCPDataExchange
*	COMPILER VERSION: 3.0.0.0
*
***********************************************************************

**************************************************
	CODE GENERATOR SUBROUTINES
**************************************************

$$MOD:
005BA340  FB90 F3F1		sdiv r3, r0, r1
005BA344  4359     		mul r1, r1, r3
005BA346  EBC1 0000		rsb r0, r1, r0
005BA34A  4770     		bx lr

$$MOD_U:
005BA34C  FBB0 F3F1		udiv r3, r0, r1
005BA350  4359     		mul r1, r1, r3
005BA352  EBC1 0000		rsb r0, r1, r0
005BA356  4770     		bx lr

**************************************************
	List function: _TCPDExchVarSize
**************************************************

FUNCTION _TCPDExchVarSize : UDINT

	{ DE:"(eLabDataExchLib_A500) TCP data exchange returns data structure length (Private)" }

        VAR_INPUT
IDx : USINT;	{ DE:"Data structure index" }
	END_VAR

END_FUNCTION

	*** Function data allocation

	Par IDx: CALLER STACK FRAME AT sp+0

005BA358  466F     		mov r7, sp
005BA35A  B082     		sub sp, sp, #8
005BA35C  F8CD E000		str lr, [sp]
005BA360  E92D 0F50		stmdb sp!, { r4, r6, r8, r9, r10, fp }
005BA364  463E     		mov r6, r7
005BA366  2400     		mov r4, #0

005BA368  7830     		ldrb r0, [r6]

005BA36A  2800     		cmp r0, #0
005BA36C  BF18 2000		nemov r0, #0
005BA370  BF08 2001		eqmov r0, #1

005BA374  2800     		cmp r0, #0
005BA376  D114     		bne #40 ; 0x005BA3A2


005BA37A  7830     		ldrb r0, [r6]

005BA37C  2801     		cmp r0, #1
005BA37E  BF18 2000		nemov r0, #0
005BA382  BF08 2001		eqmov r0, #1

005BA386  2800     		cmp r0, #0
005BA388  D10F     		bne #30 ; 0x005BA3AA


005BA38C  7830     		ldrb r0, [r6]

005BA38E  2802     		cmp r0, #2
005BA390  BF18 2000		nemov r0, #0
005BA394  BF08 2001		eqmov r0, #1

005BA398  2800     		cmp r0, #0
005BA39A  D10A     		bne #20 ; 0x005BA3B2


005BA39E  E00C     		b #24 ; 0x005BA3BA


005BA3A2  2028     		mov r0, #40 ; 40
005BA3A4  4604     		mov r4, r0

005BA3A6  E00A     		b #20 ; 0x005BA3BE


005BA3AA  2030     		mov r0, #48 ; 48
005BA3AC  4604     		mov r4, r0

005BA3AE  E006     		b #12 ; 0x005BA3BE


005BA3B2  2008     		mov r0, #8 ; 8
005BA3B4  4604     		mov r4, r0

005BA3B6  E002     		b #4 ; 0x005BA3BE


005BA3BA  2000     		mov r0, #0 ; 0
005BA3BC  4604     		mov r4, r0

005BA3BE  4620     		mov r0, r4
005BA3C0  E8BD 0F50		ldmia sp!, { r4, r6, r8, r9, r10, fp }
005BA3C4  F8DD E000		ldr lr, [sp]
005BA3C8  B002     		add sp, sp, #8

005BA3CA  4770     		bx lr

END_FUNCTION
**************************************************
	List function block: _TCPDataExchServer
**************************************************

FUNCTION_BLOCK _TCPDataExchServer

	{ DE:"(eLabDataExchLib_A500) Receives data from slave (Private)" }

        VAR_INPUT
Connections : USINT;	{ DE:"Accepted connections" }
SpyOn : BOOL;	{ DE:"Spy active" }
SBSize : USINT;	{ DE:"Spy buffer size" }
SpyBuffer : @BYTE;	{ DE:"Spy buffer address (Allocata con SysRMAlloc nel main)" }
DEDefs : @TCPDEXCHNODEDEFS;	{ DE:"Data exchange node definitions" }
Fp : @UDINT;	{ DE:"File pointer (Definito per permettere SIZEOF)" }
PDs : @_TCPDEXCHDATASTRUCT;	{ DE:"Data struct buffer pointer" }
	END_VAR

        VAR_OUTPUT
Fault : BOOL;	{ DE:"Execution fault" }
	END_VAR

        VAR
i : UDINT;	{ DE:"Auxiliary variable" }
PDEDefs : @TCPDEXCHNODEDEFS;	{ DE:"Pointer node definitions" }
Ptr : ARRAY[ 0..1 ] OF @BYTE;	{ DE:"Auxiliary pointer" }
	END_VAR

END_FUNCTION_BLOCK

005BA3CC  E92D 4040		stmdb sp!, { r6, lr }
005BA3D0  462E     		mov r6, r5

005BA3D2  2000     		mov r0, #0 ; 0
005BA3D4  F8DF 7830		ldr r7, [pc, #+2096] ; 0x24
005BA3D8  55F0     		strb r0, [r6, +r7]

005BA3DA  F8DF 7828		ldr r7, [pc, #+2088] ; 0x20
005BA3DE  F856 C007		ldr r12, [r6, +r7]
005BA3E2  F8DF 77EC		ldr r7, [pc, #+2028] ; 0x1
005BA3E6  F81C 0007		ldrb r0, [r12, +r7]

005BA3EA  2800     		cmp r0, #0
005BA3EC  D00B     		beq #22 ; 0x005BA406


005BA3F0  F8DF 7810		ldr r7, [pc, #+2064] ; 0x20
005BA3F4  F856 C007		ldr r12, [r6, +r7]
005BA3F8  F8DF 780C		ldr r7, [pc, #+2060] ; 0x24
005BA3FC  F85C 0007		ldr r0, [r12, +r7]
005BA400  F8DF 77D8		ldr r7, [pc, #+2008] ; 0x4
005BA404  51F0     		str r0, [r6, +r7]

005BA406  F8DF 77FC		ldr r7, [pc, #+2044] ; 0x20
005BA40A  F856 C007		ldr r12, [r6, +r7]
005BA40E  F8DF 77F0		ldr r7, [pc, #+2032] ; 0x1C
005BA412  F85C 0007		ldr r0, [r12, +r7]

005BA416  2800     		cmp r0, #0
005BA418  BF08 2000		eqmov r0, #0
005BA41C  BF18 2001		nemov r0, #1

005BA420  2800     		cmp r0, #0
005BA422  F000 80A7		beq #334 ; 0x005BA574


005BA426  F8DF 77CC		ldr r7, [pc, #+1996] ; 0x11
005BA42A  5DF0     		ldrb r0, [r6, +r7]

005BA42C  2800     		cmp r0, #0
005BA42E  D04D     		beq #154 ; 0x005BA4CC


005BA432  2000     		mov r0, #0 ; 0

005BA434  2300     		mov r3, #0 ; 0
005BA436  2200     		mov r2, #0 ; 0
005BA438  2100     		mov r1, #0 ; 0
005BA43A  4600     		mov r0, r0
005BA43C  F8DF 47E0		ldr r4, [pc, #+2016] ; 0x48FE35
005BA440  F044 0401		orr r4, r4, #1
005BA444  47A0     		blx r4

005BA446  2800     		cmp r0, #0
005BA448  BF08 2001		eqmov r0, #1
005BA44C  BF18 2000		nemov r0, #0

005BA450  2800     		cmp r0, #0
005BA452  D002     		beq #4 ; 0x005BA45A


005BA456  F001 BB04		b #5640 ; 0x005BBA62


005BA45A  F8DF 77A8		ldr r7, [pc, #+1960] ; 0x20
005BA45E  F856 C007		ldr r12, [r6, +r7]
005BA462  4660     		mov r0, r12
005BA464  F8DF 7798		ldr r7, [pc, #+1944] ; 0x1C
005BA468  19C0     		add r0, r0, r7

005BA46A  F8DF 77A0		ldr r7, [pc, #+1952] ; 0x28
005BA46E  51F0     		str r0, [r6, +r7]

005BA470  F8DF 7788		ldr r7, [pc, #+1928] ; 0x14
005BA474  59F0     		ldr r0, [r6, +r7]

005BA476  B082     		sub sp, sp, #8
005BA478  F8DF 7790		ldr r7, [pc, #+1936] ; 0x28
005BA47C  59F7     		ldr r7, [r6, +r7]
005BA47E  F8CD 7000		str r7, [sp]
005BA482  232A     		mov r3, #42 ; 42
005BA484  F8DF 77BC		ldr r7, [pc, #+1980] ; 0x5BA084
005BA488  463A     		mov r2, r7
005BA48A  F8DF 776C		ldr r7, [pc, #+1900] ; 0x12
005BA48E  5DF7     		ldrb r7, [r6, +r7]
005BA490  4639     		mov r1, r7
005BA492  4600     		mov r0, r0
005BA494  F8DF 4784		ldr r4, [pc, #+1924] ; 0x48F96D
005BA498  F044 0401		orr r4, r4, #1
005BA49C  47A0     		blx r4
005BA49E  B002     		add sp, sp, #8

005BA4A0  6030     		str r0, [r6]

005BA4A2  F8DF 07A4		ldr r0, [pc, #+1956] ; 0x5BA0A4

005BA4A6  F8DF 7764		ldr r7, [pc, #+1892] ; 0x28
005BA4AA  51F0     		str r0, [r6, +r7]

005BA4AC  2001     		mov r0, #1 ; 1

005BA4AE  F8DF 774C		ldr r7, [pc, #+1868] ; 0x14
005BA4B2  59F3     		ldr r3, [r6, +r7]
005BA4B4  F8DF 7754		ldr r7, [pc, #+1876] ; 0x28
005BA4B8  59F2     		ldr r2, [r6, +r7]
005BA4BA  F04F 4180		mov r1, #1073741824 ; 1073741824
005BA4BE  4600     		mov r0, r0
005BA4C0  F8DF 475C		ldr r4, [pc, #+1884] ; 0x48FE35
005BA4C4  F044 0401		orr r4, r4, #1
005BA4C8  47A0     		blx r4

005BA4CA  6030     		str r0, [r6]

005BA4CC  F8DF 7730		ldr r7, [pc, #+1840] ; 0x1C
005BA4D0  F856 C007		ldr r12, [r6, +r7]
005BA4D4  F8DC 0000		ldr r0, [r12]

005BA4D8  4600     		mov r0, r0
005BA4DA  F8DF 4764		ldr r4, [pc, #+1892] ; 0x490ACD
005BA4DE  F044 0401		orr r4, r4, #1
005BA4E2  47A0     		blx r4

005BA4E4  2800     		cmp r0, #0
005BA4E6  D00D     		beq #26 ; 0x005BA504


005BA4EA  F8DF 7714		ldr r7, [pc, #+1812] ; 0x1C
005BA4EE  F856 C007		ldr r12, [r6, +r7]
005BA4F2  F8DC 0000		ldr r0, [r12]

005BA4F6  4600     		mov r0, r0
005BA4F8  F8DF 4740		ldr r4, [pc, #+1856] ; 0x490A61
005BA4FC  F044 0401		orr r4, r4, #1
005BA500  47A0     		blx r4

005BA502  6030     		str r0, [r6]

005BA504  2001     		mov r0, #1 ; 1
005BA506  F8DF 7700		ldr r7, [pc, #+1792] ; 0x24
005BA50A  55F0     		strb r0, [r6, +r7]

005BA50C  F8DF 76F4		ldr r7, [pc, #+1780] ; 0x20
005BA510  F856 C007		ldr r12, [r6, +r7]
005BA514  F8DF 76E8		ldr r7, [pc, #+1768] ; 0x1C
005BA518  F85C 0007		ldr r0, [r12, +r7]

005BA51C  4600     		mov r0, r0
005BA51E  F8DF 4708		ldr r4, [pc, #+1800] ; 0x490561
005BA522  F044 0401		orr r4, r4, #1
005BA526  47A0     		blx r4

005BA528  6030     		str r0, [r6]

005BA52A  2000     		mov r0, #0 ; 0
005BA52C  F8DF 76D4		ldr r7, [pc, #+1748] ; 0x20
005BA530  F856 C007		ldr r12, [r6, +r7]
005BA534  F8DF 76C8		ldr r7, [pc, #+1736] ; 0x1C
005BA538  F84C 0007		str r0, [r12, +r7]

005BA53C  F8DF 76C4		ldr r7, [pc, #+1732] ; 0x20
005BA540  F856 C007		ldr r12, [r6, +r7]
005BA544  F8DF 7688		ldr r7, [pc, #+1672] ; 0x1
005BA548  F81C 0007		ldrb r0, [r12, +r7]

005BA54C  2800     		cmp r0, #0
005BA54E  D011     		beq #34 ; 0x005BA574


005BA552  F8DF 7688		ldr r7, [pc, #+1672] ; 0x4
005BA556  F856 C007		ldr r12, [r6, +r7]
005BA55A  F8DF 76AC		ldr r7, [pc, #+1708] ; 0x24
005BA55E  F85C 0007		ldr r0, [r12, +r7]

005BA562  1C40     		add r0, r0, #1

005BA564  F8DF 7674		ldr r7, [pc, #+1652] ; 0x4
005BA568  F856 C007		ldr r12, [r6, +r7]
005BA56C  F8DF 7698		ldr r7, [pc, #+1688] ; 0x24
005BA570  F84C 0007		str r0, [r12, +r7]

005BA574  F8DF 7688		ldr r7, [pc, #+1672] ; 0x1C
005BA578  F856 C007		ldr r12, [r6, +r7]
005BA57C  F8DC 0000		ldr r0, [r12]

005BA580  4600     		mov r0, r0
005BA582  F8DF 46BC		ldr r4, [pc, #+1724] ; 0x490ACD
005BA586  F044 0401		orr r4, r4, #1
005BA58A  47A0     		blx r4

005BA58C  2800     		cmp r0, #0
005BA58E  BF08 2001		eqmov r0, #1
005BA592  BF18 2000		nemov r0, #0

005BA596  2800     		cmp r0, #0
005BA598  D075     		beq #234 ; 0x005BA686


005BA59C  F8DF 7664		ldr r7, [pc, #+1636] ; 0x20
005BA5A0  F856 C007		ldr r12, [r6, +r7]
005BA5A4  F89C 0000		ldrb r0, [r12]

005BA5A8  2800     		cmp r0, #0
005BA5AA  D06A     		beq #212 ; 0x005BA682


005BA5AE  F8DF 7654		ldr r7, [pc, #+1620] ; 0x20
005BA5B2  F856 C007		ldr r12, [r6, +r7]
005BA5B6  F8DF 7618		ldr r7, [pc, #+1560] ; 0x1
005BA5BA  F81C 0007		ldrb r0, [r12, +r7]

005BA5BE  2800     		cmp r0, #0
005BA5C0  D012     		beq #36 ; 0x005BA5E8


005BA5C4  2000     		mov r0, #0 ; 0
005BA5C6  F8DF 7614		ldr r7, [pc, #+1556] ; 0x4
005BA5CA  F856 C007		ldr r12, [r6, +r7]
005BA5CE  F8DF 7608		ldr r7, [pc, #+1544] ; 0x3
005BA5D2  F80C 0007		strb r0, [r12, +r7]

005BA5D6  2000     		mov r0, #0 ; 0
005BA5D8  F8DF 7600		ldr r7, [pc, #+1536] ; 0x4
005BA5DC  F856 C007		ldr r12, [r6, +r7]
005BA5E0  F8DF 75F0		ldr r7, [pc, #+1520] ; 0x2
005BA5E4  F80C 0007		strb r0, [r12, +r7]

005BA5E8  F8DF 7618		ldr r7, [pc, #+1560] ; 0x20
005BA5EC  F856 C007		ldr r12, [r6, +r7]
005BA5F0  F8DF 7610		ldr r7, [pc, #+1552] ; 0x20
005BA5F4  F85C 0007		ldr r0, [r12, +r7]

005BA5F8  2700     		mov r7, #0 ; 0
005BA5FA  42B8     		cmp r0, r7
005BA5FC  BF08 2000		eqmov r0, #0
005BA600  BF18 2001		nemov r0, #1

005BA604  2800     		cmp r0, #0
005BA606  D00F     		beq #30 ; 0x005BA628


005BA60A  F8DF 75F8		ldr r7, [pc, #+1528] ; 0x20
005BA60E  F856 C007		ldr r12, [r6, +r7]
005BA612  4660     		mov r0, r12
005BA614  F8DF 75EC		ldr r7, [pc, #+1516] ; 0x20
005BA618  19C0     		add r0, r0, r7

005BA61A  4600     		mov r0, r0
005BA61C  F8DF 4610		ldr r4, [pc, #+1552] ; 0x4905F5
005BA620  F044 0401		orr r4, r4, #1
005BA624  47A0     		blx r4

005BA626  6030     		str r0, [r6]

005BA628  2001     		mov r0, #1 ; 1

005BA62A  B082     		sub sp, sp, #8
005BA62C  F8CD 0000		str r0, [sp]
005BA630  F8DF 4638		ldr r4, [pc, #+1592] ; 0x5BA358
005BA634  F044 0401		orr r4, r4, #1
005BA638  47A0     		blx r4
005BA63A  B002     		add sp, sp, #8

005BA63C  F8DF 75D0		ldr r7, [pc, #+1488] ; 0x2C
005BA640  51F0     		str r0, [r6, +r7]

005BA642  F8DF 75C0		ldr r7, [pc, #+1472] ; 0x20
005BA646  59F0     		ldr r0, [r6, +r7]

005BA648  F8DF 75C4		ldr r7, [pc, #+1476] ; 0x2C
005BA64C  59F2     		ldr r2, [r6, +r7]
005BA64E  2100     		mov r1, #0 ; 0
005BA650  4600     		mov r0, r0
005BA652  F8DF 45E0		ldr r4, [pc, #+1504] ; 0x490795
005BA656  F044 0401		orr r4, r4, #1
005BA65A  47A0     		blx r4

005BA65C  6030     		str r0, [r6]

005BA65E  2000     		mov r0, #0 ; 0
005BA660  F8DF 75A0		ldr r7, [pc, #+1440] ; 0x20
005BA664  F856 C007		ldr r12, [r6, +r7]
005BA668  F88C 0000		strb r0, [r12]

005BA66C  F8DF 75DC		ldr r7, [pc, #+1500] ; 0x5BA0A8
005BA670  6838     		ldr r0, [r7]
005BA672  F8DF 7590		ldr r7, [pc, #+1424] ; 0x20
005BA676  F856 C007		ldr r12, [r6, +r7]
005BA67A  F8DF 7584		ldr r7, [pc, #+1412] ; 0x1C
005BA67E  F84C 0007		str r0, [r12, +r7]

005BA682  F001 B9EE		b #5084 ; 0x005BBA62


005BA686  F8DF 757C		ldr r7, [pc, #+1404] ; 0x20
005BA68A  F856 C007		ldr r12, [r6, +r7]
005BA68E  F89C 0000		ldrb r0, [r12]

005BA692  2800     		cmp r0, #0
005BA694  BF08 2001		eqmov r0, #1
005BA698  BF18 2000		nemov r0, #0

005BA69C  2800     		cmp r0, #0
005BA69E  D043     		beq #134 ; 0x005BA728


005BA6A2  2001     		mov r0, #1 ; 1

005BA6A4  B082     		sub sp, sp, #8
005BA6A6  F8CD 0000		str r0, [sp]
005BA6AA  F8DF 45C0		ldr r4, [pc, #+1472] ; 0x5BA358
005BA6AE  F044 0401		orr r4, r4, #1
005BA6B2  47A0     		blx r4
005BA6B4  B002     		add sp, sp, #8

005BA6B6  F8DF 7558		ldr r7, [pc, #+1368] ; 0x2C
005BA6BA  51F0     		str r0, [r6, +r7]

005BA6BC  F8DF 7544		ldr r7, [pc, #+1348] ; 0x20
005BA6C0  59F0     		ldr r0, [r6, +r7]

005BA6C2  F8DF 754C		ldr r7, [pc, #+1356] ; 0x2C
005BA6C6  59F2     		ldr r2, [r6, +r7]
005BA6C8  2100     		mov r1, #0 ; 0
005BA6CA  4600     		mov r0, r0
005BA6CC  F8DF 4564		ldr r4, [pc, #+1380] ; 0x490795
005BA6D0  F044 0401		orr r4, r4, #1
005BA6D4  47A0     		blx r4

005BA6D6  6030     		str r0, [r6]

005BA6D8  2001     		mov r0, #1 ; 1
005BA6DA  F8DF 7528		ldr r7, [pc, #+1320] ; 0x20
005BA6DE  F856 C007		ldr r12, [r6, +r7]
005BA6E2  F88C 0000		strb r0, [r12]

005BA6E6  2000     		mov r0, #0 ; 0

005BA6E8  6030     		str r0, [r6]

005BA6EA  6830     		ldr r0, [r6]

005BA6EC  2802     		cmp r0, #2
005BA6EE  BF98 2000		lsmov r0, #0
005BA6F2  BF88 2001		himov r0, #1

005BA6F6  2800     		cmp r0, #0
005BA6F8  D116     		bne #44 ; 0x005BA728


005BA6FC  2001     		mov r0, #1 ; 1

005BA6FE  4600     		mov r0, r0
005BA700  F8DF 4520		ldr r4, [pc, #+1312] ; 0x490519
005BA704  F044 0401		orr r4, r4, #1
005BA708  47A0     		blx r4

005BA70A  F8DF 74F8		ldr r7, [pc, #+1272] ; 0x20
005BA70E  F856 C007		ldr r12, [r6, +r7]
005BA712  6835     		ldr r5, [r6]
005BA714  F8DF 74D0		ldr r7, [pc, #+1232] ; 0x8
005BA718  EB07 0785		add r7, r7, r5, lsl #2
005BA71C  F84C 0007		str r0, [r12, +r7]

005BA720  6830     		ldr r0, [r6]

005BA722  1C40     		add r0, r0, #1

005BA724  6030     		str r0, [r6]

005BA726  E7E0     		b #-64 ; 0x005BA6EA

005BA728  F8DF 74D8		ldr r7, [pc, #+1240] ; 0x20
005BA72C  F856 C007		ldr r12, [r6, +r7]
005BA730  F8DF 749C		ldr r7, [pc, #+1180] ; 0x1
005BA734  F81C 0007		ldrb r0, [r12, +r7]

005BA738  2800     		cmp r0, #0
005BA73A  D04E     		beq #156 ; 0x005BA7DA


005BA73E  F8DF 749C		ldr r7, [pc, #+1180] ; 0x4
005BA742  F856 C007		ldr r12, [r6, +r7]
005BA746  F8DF 7490		ldr r7, [pc, #+1168] ; 0x3
005BA74A  F81C 0007		ldrb r0, [r12, +r7]

005BA74E  2800     		cmp r0, #0
005BA750  D043     		beq #134 ; 0x005BA7DA


005BA754  2001     		mov r0, #1 ; 1

005BA756  4600     		mov r0, r0
005BA758  F8DF 44C8		ldr r4, [pc, #+1224] ; 0x490519
005BA75C  F044 0401		orr r4, r4, #1
005BA760  47A0     		blx r4

005BA762  F8DF 74A0		ldr r7, [pc, #+1184] ; 0x20
005BA766  F856 C007		ldr r12, [r6, +r7]
005BA76A  F8DF 7480		ldr r7, [pc, #+1152] ; 0xC
005BA76E  F85C 7007		ldr r7, [r12, +r7]
005BA772  1BC0     		sub r0, r0, r7

005BA774  F8DF 7498		ldr r7, [pc, #+1176] ; 0x2C
005BA778  51F0     		str r0, [r6, +r7]

005BA77A  F8DF 7460		ldr r7, [pc, #+1120] ; 0x4
005BA77E  F856 C007		ldr r12, [r6, +r7]
005BA782  F8DF 745C		ldr r7, [pc, #+1116] ; 0x5
005BA786  F81C 0007		ldrb r0, [r12, +r7]

005BA78A  F8DF 74C4		ldr r7, [pc, #+1220] ; 0x5BA0AC
005BA78E  683F     		ldr r7, [r7]
005BA790  4378     		mul r0, r0, r7

005BA792  F8DF 7480		ldr r7, [pc, #+1152] ; 0x30
005BA796  51F0     		str r0, [r6, +r7]

005BA798  F8DF 7478		ldr r7, [pc, #+1144] ; 0x30
005BA79C  59F0     		ldr r0, [r6, +r7]

005BA79E  F8DF 7478		ldr r7, [pc, #+1144] ; 0x34
005BA7A2  51F0     		str r0, [r6, +r7]

005BA7A4  F8DF 7468		ldr r7, [pc, #+1128] ; 0x2C
005BA7A8  59F0     		ldr r0, [r6, +r7]

005BA7AA  F8DF 746C		ldr r7, [pc, #+1132] ; 0x34
005BA7AE  59F7     		ldr r7, [r6, +r7]
005BA7B0  42B8     		cmp r0, r7
005BA7B2  BF98 2000		lsmov r0, #0
005BA7B6  BF88 2001		himov r0, #1

005BA7BA  2800     		cmp r0, #0
005BA7BC  D00D     		beq #26 ; 0x005BA7DA


005BA7C0  F8DF 7490		ldr r7, [pc, #+1168] ; 0x5BA0B0
005BA7C4  6838     		ldr r0, [r7]
005BA7C6  F8DF 743C		ldr r7, [pc, #+1084] ; 0x20
005BA7CA  F856 C007		ldr r12, [r6, +r7]
005BA7CE  F8DF 7430		ldr r7, [pc, #+1072] ; 0x1C
005BA7D2  F84C 0007		str r0, [r12, +r7]

005BA7D6  F001 B944		b #4744 ; 0x005BBA62


005BA7DA  F8DF 7428		ldr r7, [pc, #+1064] ; 0x20
005BA7DE  F856 C007		ldr r12, [r6, +r7]
005BA7E2  F8DF 73EC		ldr r7, [pc, #+1004] ; 0x1
005BA7E6  F81C 0007		ldrb r0, [r12, +r7]

005BA7EA  2800     		cmp r0, #0
005BA7EC  D04E     		beq #156 ; 0x005BA88C


005BA7F0  F8DF 73E8		ldr r7, [pc, #+1000] ; 0x4
005BA7F4  F856 C007		ldr r12, [r6, +r7]
005BA7F8  F8DF 73DC		ldr r7, [pc, #+988] ; 0x3
005BA7FC  F81C 0007		ldrb r0, [r12, +r7]

005BA800  2800     		cmp r0, #0
005BA802  D043     		beq #134 ; 0x005BA88C


005BA806  2001     		mov r0, #1 ; 1

005BA808  4600     		mov r0, r0
005BA80A  F8DF 4418		ldr r4, [pc, #+1048] ; 0x490519
005BA80E  F044 0401		orr r4, r4, #1
005BA812  47A0     		blx r4

005BA814  F8DF 73EC		ldr r7, [pc, #+1004] ; 0x20
005BA818  F856 C007		ldr r12, [r6, +r7]
005BA81C  F8DF 73D0		ldr r7, [pc, #+976] ; 0x10
005BA820  F85C 7007		ldr r7, [r12, +r7]
005BA824  1BC0     		sub r0, r0, r7

005BA826  F8DF 73E8		ldr r7, [pc, #+1000] ; 0x2C
005BA82A  51F0     		str r0, [r6, +r7]

005BA82C  F8DF 73AC		ldr r7, [pc, #+940] ; 0x4
005BA830  F856 C007		ldr r12, [r6, +r7]
005BA834  F8DF 73AC		ldr r7, [pc, #+940] ; 0x6
005BA838  F81C 0007		ldrb r0, [r12, +r7]

005BA83C  F8DF 7410		ldr r7, [pc, #+1040] ; 0x5BA0AC
005BA840  683F     		ldr r7, [r7]
005BA842  4378     		mul r0, r0, r7

005BA844  F8DF 73CC		ldr r7, [pc, #+972] ; 0x30
005BA848  51F0     		str r0, [r6, +r7]

005BA84A  F8DF 73C8		ldr r7, [pc, #+968] ; 0x30
005BA84E  59F0     		ldr r0, [r6, +r7]

005BA850  F8DF 73C4		ldr r7, [pc, #+964] ; 0x34
005BA854  51F0     		str r0, [r6, +r7]

005BA856  F8DF 73B8		ldr r7, [pc, #+952] ; 0x2C
005BA85A  59F0     		ldr r0, [r6, +r7]

005BA85C  F8DF 73B8		ldr r7, [pc, #+952] ; 0x34
005BA860  59F7     		ldr r7, [r6, +r7]
005BA862  42B8     		cmp r0, r7
005BA864  BF98 2000		lsmov r0, #0
005BA868  BF88 2001		himov r0, #1

005BA86C  2800     		cmp r0, #0
005BA86E  D00D     		beq #26 ; 0x005BA88C


005BA872  F8DF 73E4		ldr r7, [pc, #+996] ; 0x5BA0B4
005BA876  6838     		ldr r0, [r7]
005BA878  F8DF 7388		ldr r7, [pc, #+904] ; 0x20
005BA87C  F856 C007		ldr r12, [r6, +r7]
005BA880  F8DF 737C		ldr r7, [pc, #+892] ; 0x1C
005BA884  F84C 0007		str r0, [r12, +r7]

005BA888  F001 B8EB		b #4566 ; 0x005BBA62


005BA88C  F8DF 7374		ldr r7, [pc, #+884] ; 0x20
005BA890  F856 C007		ldr r12, [r6, +r7]
005BA894  F8DF 7338		ldr r7, [pc, #+824] ; 0x1
005BA898  F81C 0007		ldrb r0, [r12, +r7]

005BA89C  2800     		cmp r0, #0
005BA89E  F000 8126		beq #588 ; 0x005BAAEE


005BA8A2  F8DF 7338		ldr r7, [pc, #+824] ; 0x4
005BA8A6  F856 C007		ldr r12, [r6, +r7]
005BA8AA  F8DF 7324		ldr r7, [pc, #+804] ; 0x1
005BA8AE  F81C 0007		ldrb r0, [r12, +r7]

005BA8B2  2800     		cmp r0, #0
005BA8B4  F000 811B		beq #566 ; 0x005BAAEE


005BA8B8  F8DF 7348		ldr r7, [pc, #+840] ; 0x20
005BA8BC  F856 C007		ldr r12, [r6, +r7]
005BA8C0  F8DF 7340		ldr r7, [pc, #+832] ; 0x20
005BA8C4  F85C 0007		ldr r0, [r12, +r7]

005BA8C8  2700     		mov r7, #0 ; 0
005BA8CA  42B8     		cmp r0, r7
005BA8CC  BF18 2000		nemov r0, #0
005BA8D0  BF08 2001		eqmov r0, #1

005BA8D4  2800     		cmp r0, #0
005BA8D6  D060     		beq #192 ; 0x005BA99A


005BA8DA  F8DF 7300		ldr r7, [pc, #+768] ; 0x4
005BA8DE  F856 C007		ldr r12, [r6, +r7]
005BA8E2  F8DF 7318		ldr r7, [pc, #+792] ; 0x14
005BA8E6  F85C 0007		ldr r0, [r12, +r7]
005BA8EA  F8DF 7318		ldr r7, [pc, #+792] ; 0x20
005BA8EE  F856 C007		ldr r12, [r6, +r7]
005BA8F2  F8DF 7308		ldr r7, [pc, #+776] ; 0x14
005BA8F6  F84C 0007		str r0, [r12, +r7]

005BA8FA  F8DF 7308		ldr r7, [pc, #+776] ; 0x20
005BA8FE  F856 C007		ldr r12, [r6, +r7]
005BA902  4660     		mov r0, r12
005BA904  F8DF 72FC		ldr r7, [pc, #+764] ; 0x20
005BA908  19C0     		add r0, r0, r7

005BA90A  F8DF 7300		ldr r7, [pc, #+768] ; 0x28
005BA90E  51F0     		str r0, [r6, +r7]

005BA910  F8DF 72F0		ldr r7, [pc, #+752] ; 0x20
005BA914  F856 C007		ldr r12, [r6, +r7]
005BA918  F8DF 72E0		ldr r7, [pc, #+736] ; 0x14
005BA91C  F85C 0007		ldr r0, [r12, +r7]

005BA920  F8DF 72E8		ldr r7, [pc, #+744] ; 0x28
005BA924  59F1     		ldr r1, [r6, +r7]
005BA926  4600     		mov r0, r0
005BA928  F8DF 4300		ldr r4, [pc, #+768] ; 0x4905B1
005BA92C  F044 0401		orr r4, r4, #1
005BA930  47A0     		blx r4

005BA932  2800     		cmp r0, #0
005BA934  BF08 2001		eqmov r0, #1
005BA938  BF18 2000		nemov r0, #0

005BA93C  2800     		cmp r0, #0
005BA93E  D00D     		beq #26 ; 0x005BA95C


005BA942  F8DF 7318		ldr r7, [pc, #+792] ; 0x5BA0B8
005BA946  6838     		ldr r0, [r7]
005BA948  F8DF 72B8		ldr r7, [pc, #+696] ; 0x20
005BA94C  F856 C007		ldr r12, [r6, +r7]
005BA950  F8DF 72AC		ldr r7, [pc, #+684] ; 0x1C
005BA954  F84C 0007		str r0, [r12, +r7]

005BA958  F001 B883		b #4358 ; 0x005BBA62


005BA95C  F8DF 72A4		ldr r7, [pc, #+676] ; 0x20
005BA960  F856 C007		ldr r12, [r6, +r7]
005BA964  F8DF 729C		ldr r7, [pc, #+668] ; 0x20
005BA968  F85C 0007		ldr r0, [r12, +r7]

005BA96C  F8DF 7294		ldr r7, [pc, #+660] ; 0x20
005BA970  F856 C007		ldr r12, [r6, +r7]
005BA974  F8DF 7284		ldr r7, [pc, #+644] ; 0x14
005BA978  F85C 2007		ldr r2, [r12, +r7]
005BA97C  F8DF 725C		ldr r7, [pc, #+604] ; 0x4
005BA980  F856 C007		ldr r12, [r6, +r7]
005BA984  F8DF 7268		ldr r7, [pc, #+616] ; 0x10
005BA988  F85C 1007		ldr r1, [r12, +r7]
005BA98C  4600     		mov r0, r0
005BA98E  F8DF 42A8		ldr r4, [pc, #+680] ; 0x4907E5
005BA992  F044 0401		orr r4, r4, #1
005BA996  47A0     		blx r4

005BA998  6030     		str r0, [r6]

005BA99A  F8DF 7240		ldr r7, [pc, #+576] ; 0x4
005BA99E  F856 C007		ldr r12, [r6, +r7]
005BA9A2  F8DF 7258		ldr r7, [pc, #+600] ; 0x14
005BA9A6  F85C 0007		ldr r0, [r12, +r7]

005BA9AA  F8DF 7258		ldr r7, [pc, #+600] ; 0x20
005BA9AE  F856 C007		ldr r12, [r6, +r7]
005BA9B2  F8DF 7248		ldr r7, [pc, #+584] ; 0x14
005BA9B6  F85C 7007		ldr r7, [r12, +r7]
005BA9BA  42B8     		cmp r0, r7
005BA9BC  BF08 2000		eqmov r0, #0
005BA9C0  BF18 2001		nemov r0, #1

005BA9C4  2800     		cmp r0, #0
005BA9C6  D00D     		beq #26 ; 0x005BA9E4


005BA9CA  F8DF 7294		ldr r7, [pc, #+660] ; 0x5BA0BC
005BA9CE  6838     		ldr r0, [r7]
005BA9D0  F8DF 7230		ldr r7, [pc, #+560] ; 0x20
005BA9D4  F856 C007		ldr r12, [r6, +r7]
005BA9D8  F8DF 7224		ldr r7, [pc, #+548] ; 0x1C
005BA9DC  F84C 0007		str r0, [r12, +r7]

005BA9E0  F001 B83F		b #4222 ; 0x005BBA62


005BA9E4  F8DF 721C		ldr r7, [pc, #+540] ; 0x20
005BA9E8  F856 C007		ldr r12, [r6, +r7]
005BA9EC  F8DF 71EC		ldr r7, [pc, #+492] ; 0x4
005BA9F0  F81C 0007		ldrb r0, [r12, +r7]

005BA9F4  2800     		cmp r0, #0
005BA9F6  BF18 2000		nemov r0, #0
005BA9FA  BF08 2001		eqmov r0, #1

005BA9FE  F8DF 71DC		ldr r7, [pc, #+476] ; 0x4
005BAA02  F856 C007		ldr r12, [r6, +r7]
005BAA06  F8DF 71D0		ldr r7, [pc, #+464] ; 0x3
005BAA0A  F81C 7007		ldrb r7, [r12, +r7]
005BAA0E  4038     		and r0, r0, r7

005BAA10  2800     		cmp r0, #0
005BAA12  D06C     		beq #216 ; 0x005BAAEE


005BAA16  F8DF 71EC		ldr r7, [pc, #+492] ; 0x20
005BAA1A  F856 C007		ldr r12, [r6, +r7]
005BAA1E  F8DF 71E4		ldr r7, [pc, #+484] ; 0x20
005BAA22  F85C 0007		ldr r0, [r12, +r7]
005BAA26  F8DF 71C0		ldr r7, [pc, #+448] ; 0x8
005BAA2A  51F0     		str r0, [r6, +r7]

005BAA2C  F8DF 71AC		ldr r7, [pc, #+428] ; 0x4
005BAA30  F856 C007		ldr r12, [r6, +r7]
005BAA34  F8DF 71B8		ldr r7, [pc, #+440] ; 0x10
005BAA38  F85C 0007		ldr r0, [r12, +r7]
005BAA3C  F8DF 71AC		ldr r7, [pc, #+428] ; 0xC
005BAA40  51F0     		str r0, [r6, +r7]

005BAA42  2000     		mov r0, #0 ; 0

005BAA44  6030     		str r0, [r6]

005BAA46  6830     		ldr r0, [r6]

005BAA48  B082     		sub sp, sp, #8
005BAA4A  F8CD 0000		str r0, [sp]
005BAA4E  F8DF 71B4		ldr r7, [pc, #+436] ; 0x20
005BAA52  F856 C007		ldr r12, [r6, +r7]
005BAA56  F8DF 71A4		ldr r7, [pc, #+420] ; 0x14
005BAA5A  F85C 0007		ldr r0, [r12, +r7]

005BAA5E  1E40     		sub r0, r0, #1

005BAA60  4607     		mov r7, r0
005BAA62  F8DD 0000		ldr r0, [sp]
005BAA66  B002     		add sp, sp, #8
005BAA68  42B8     		cmp r0, r7
005BAA6A  BF98 2000		lsmov r0, #0
005BAA6E  BF88 2001		himov r0, #1

005BAA72  2800     		cmp r0, #0
005BAA74  D13B     		bne #118 ; 0x005BAAEE


005BAA78  F8DF 716C		ldr r7, [pc, #+364] ; 0x8
005BAA7C  F856 C007		ldr r12, [r6, +r7]
005BAA80  F89C 0000		ldrb r0, [r12]

005BAA84  F8DF 7164		ldr r7, [pc, #+356] ; 0xC
005BAA88  F856 C007		ldr r12, [r6, +r7]
005BAA8C  F89C 7000		ldrb r7, [r12]
005BAA90  42B8     		cmp r0, r7
005BAA92  BF08 2000		eqmov r0, #0
005BAA96  BF18 2001		nemov r0, #1

005BAA9A  2800     		cmp r0, #0
005BAA9C  D015     		beq #42 ; 0x005BAACA


005BAAA0  2001     		mov r0, #1 ; 1
005BAAA2  F8DF 7160		ldr r7, [pc, #+352] ; 0x20
005BAAA6  F856 C007		ldr r12, [r6, +r7]
005BAAAA  F8DF 7128		ldr r7, [pc, #+296] ; 0x2
005BAAAE  F80C 0007		strb r0, [r12, +r7]

005BAAB2  F8DF 7138		ldr r7, [pc, #+312] ; 0xC
005BAAB6  F856 C007		ldr r12, [r6, +r7]
005BAABA  F89C 0000		ldrb r0, [r12]
005BAABE  F8DF 7128		ldr r7, [pc, #+296] ; 0x8
005BAAC2  F856 C007		ldr r12, [r6, +r7]
005BAAC6  F88C 0000		strb r0, [r12]

005BAACA  F8DF 711C		ldr r7, [pc, #+284] ; 0x8
005BAACE  59F0     		ldr r0, [r6, +r7]

005BAAD0  1C40     		add r0, r0, #1

005BAAD2  F8DF 7114		ldr r7, [pc, #+276] ; 0x8
005BAAD6  51F0     		str r0, [r6, +r7]

005BAAD8  F8DF 7110		ldr r7, [pc, #+272] ; 0xC
005BAADC  59F0     		ldr r0, [r6, +r7]

005BAADE  1C40     		add r0, r0, #1

005BAAE0  F8DF 7108		ldr r7, [pc, #+264] ; 0xC
005BAAE4  51F0     		str r0, [r6, +r7]

005BAAE6  6830     		ldr r0, [r6]

005BAAE8  1C40     		add r0, r0, #1

005BAAEA  6030     		str r0, [r6]

005BAAEC  E7AB     		b #-170 ; 0x005BAA46

005BAAEE  F8DF 7114		ldr r7, [pc, #+276] ; 0x20
005BAAF2  F856 C007		ldr r12, [r6, +r7]
005BAAF6  F8DF 70E4		ldr r7, [pc, #+228] ; 0x4
005BAAFA  F81C 0007		ldrb r0, [r12, +r7]

005BAAFE  2800     		cmp r0, #0
005BAB00  BF18 2000		nemov r0, #0
005BAB04  BF08 2001		eqmov r0, #1

005BAB08  2800     		cmp r0, #0
005BAB0A  D00F     		beq #30 ; 0x005BAB2C


005BAB0E  2001     		mov r0, #1 ; 1

005BAB10  4600     		mov r0, r0
005BAB12  F8DF 4110		ldr r4, [pc, #+272] ; 0x490519
005BAB16  F044 0401		orr r4, r4, #1
005BAB1A  47A0     		blx r4

005BAB1C  F8DF 70E4		ldr r7, [pc, #+228] ; 0x20
005BAB20  F856 C007		ldr r12, [r6, +r7]
005BAB24  F8DF 70C0		ldr r7, [pc, #+192] ; 0x8
005BAB28  F84C 0007		str r0, [r12, +r7]

005BAB2C  2001     		mov r0, #1 ; 1

005BAB2E  4600     		mov r0, r0
005BAB30  F8DF 40F0		ldr r4, [pc, #+240] ; 0x490519
005BAB34  F044 0401		orr r4, r4, #1
005BAB38  47A0     		blx r4

005BAB3A  F8DF 70C8		ldr r7, [pc, #+200] ; 0x20
005BAB3E  F856 C007		ldr r12, [r6, +r7]
005BAB42  F8DF 70A4		ldr r7, [pc, #+164] ; 0x8
005BAB46  F85C 7007		ldr r7, [r12, +r7]
005BAB4A  1BC0     		sub r0, r0, r7

005BAB4C  F8DF 7114		ldr r7, [pc, #+276] ; 0x5BA0C0
005BAB50  683F     		ldr r7, [r7]
005BAB52  42B8     		cmp r0, r7
005BAB54  BF98 2000		lsmov r0, #0
005BAB58  BF88 2001		himov r0, #1

005BAB5C  2800     		cmp r0, #0
005BAB5E  D00D     		beq #26 ; 0x005BAB7C


005BAB62  F8DF 7104		ldr r7, [pc, #+260] ; 0x5BA0C4
005BAB66  6838     		ldr r0, [r7]
005BAB68  F8DF 7098		ldr r7, [pc, #+152] ; 0x20
005BAB6C  F856 C007		ldr r12, [r6, +r7]
005BAB70  F8DF 708C		ldr r7, [pc, #+140] ; 0x1C
005BAB74  F84C 0007		str r0, [r12, +r7]

005BAB78  F000 BF73		b #3814 ; 0x005BBA62


005BAB7C  2001     		mov r0, #1 ; 1

005BAB7E  2800     		cmp r0, #0
005BAB80  F000 876F		beq #3806 ; 0x005BBA62


005BAB84  2000     		mov r0, #0 ; 0

005BAB86  2300     		mov r3, #0 ; 0
005BAB88  2200     		mov r2, #0 ; 0
005BAB8A  2100     		mov r1, #0 ; 0
005BAB8C  4600     		mov r0, r0
005BAB8E  F8DF 4090		ldr r4, [pc, #+144] ; 0x48FE35
005BAB92  F044 0401		orr r4, r4, #1
005BAB96  47A0     		blx r4

005BAB98  2800     		cmp r0, #0
005BAB9A  BF08 2001		eqmov r0, #1
005BAB9E  BF18 2000		nemov r0, #0

005BABA2  F8DF 7050		ldr r7, [pc, #+80] ; 0x11
005BABA6  5DF7     		ldrb r7, [r6, +r7]
005BABA8  4038     		and r0, r0, r7

005BABAA  2800     		cmp r0, #0
005BABAC  D002     		beq #4 ; 0x005BABB4


005BABB0  F000 BF57		b #3758 ; 0x005BBA62


005BABB4  F8DF 704C		ldr r7, [pc, #+76] ; 0x20
005BABB8  F856 C007		ldr r12, [r6, +r7]
005BABBC  F8DF 701C		ldr r7, [pc, #+28] ; 0x4
005BABC0  F81C 0007		ldrb r0, [r12, +r7]

005BABC4  2800     		cmp r0, #0
005BABC6  BF18 2000		nemov r0, #0
005BABCA  BF08 2001		eqmov r0, #1

005BABCE  E04F     		b #158

005BABD0  00000001		; 0x00000001
005BABD4  00000002		; 0x00000002
005BABD8  00000003		; 0x00000003
005BABDC  00000004		; 0x00000004
005BABE0  00000005		; 0x00000005
005BABE4  00000006		; 0x00000006
005BABE8  00000008		; 0x00000008
005BABEC  0000000C		; 0x0000000C
005BABF0  00000010		; 0x00000010
005BABF4  00000011		; 0x00000011
005BABF8  00000012		; 0x00000012
005BABFC  00000014		; 0x00000014
005BAC00  0000001C		; 0x0000001C
005BAC04  00000020		; 0x00000020
005BAC08  00000024		; 0x00000024
005BAC0C  00000028		; 0x00000028
005BAC10  0000002C		; 0x0000002C
005BAC14  00000030		; 0x00000030
005BAC18  00000034		; 0x00000034
005BAC1C  0048F96D		; 0x0048F96D
005BAC20  0048FE35		; 0x0048FE35
005BAC24  00490519		; 0x00490519
005BAC28  00490561		; 0x00490561
005BAC2C  004905B1		; 0x004905B1
005BAC30  004905F5		; 0x004905F5
005BAC34  00490795		; 0x00490795
005BAC38  004907E5		; 0x004907E5
005BAC3C  00490A61		; 0x00490A61
005BAC40  00490ACD		; 0x00490ACD
005BAC44  005BA084		; 0x005BA084
005BAC48  005BA0A4		; 0x005BA0A4
005BAC4C  005BA0A8		; 0x005BA0A8
005BAC50  005BA0AC		; 0x005BA0AC
005BAC54  005BA0B0		; 0x005BA0B0
005BAC58  005BA0B4		; 0x005BA0B4
005BAC5C  005BA0B8		; 0x005BA0B8
005BAC60  005BA0BC		; 0x005BA0BC
005BAC64  005BA0C0		; 0x005BA0C0
005BAC68  005BA0C4		; 0x005BA0C4
005BAC6C  005BA358		; 0x005BA358

005BAC70  2800     		cmp r0, #0
005BAC72  D162     		bne #196 ; 0x005BAD3A


005BAC76  F85F 7074		ldr r7, [pc, #-116] ; 0x20
005BAC7A  F856 C007		ldr r12, [r6, +r7]
005BAC7E  F85F 70A4		ldr r7, [pc, #-164] ; 0x4
005BAC82  F81C 0007		ldrb r0, [r12, +r7]

005BAC86  2832     		cmp r0, #50
005BAC88  BF18 2000		nemov r0, #0
005BAC8C  BF08 2001		eqmov r0, #1

005BAC90  2800     		cmp r0, #0
005BAC92  F040 81E0		bne #960 ; 0x005BB056


005BAC96  F85F 7094		ldr r7, [pc, #-148] ; 0x20
005BAC9A  F856 C007		ldr r12, [r6, +r7]
005BAC9E  F85F 70C4		ldr r7, [pc, #-196] ; 0x4
005BACA2  F81C 0007		ldrb r0, [r12, +r7]

005BACA6  2833     		cmp r0, #51
005BACA8  BF18 2000		nemov r0, #0
005BACAC  BF08 2001		eqmov r0, #1

005BACB0  2800     		cmp r0, #0
005BACB2  F040 82F7		bne #1518 ; 0x005BB2A4


005BACB6  F85F 70B4		ldr r7, [pc, #-180] ; 0x20
005BACBA  F856 C007		ldr r12, [r6, +r7]
005BACBE  F85F 70E4		ldr r7, [pc, #-228] ; 0x4
005BACC2  F81C 0007		ldrb r0, [r12, +r7]

005BACC6  2834     		cmp r0, #52
005BACC8  BF18 2000		nemov r0, #0
005BACCC  BF08 2001		eqmov r0, #1

005BACD0  2800     		cmp r0, #0
005BACD2  F040 833D		bne #1658 ; 0x005BB350


005BACD6  F85F 70D4		ldr r7, [pc, #-212] ; 0x20
005BACDA  F856 C007		ldr r12, [r6, +r7]
005BACDE  F85F 7104		ldr r7, [pc, #-260] ; 0x4
005BACE2  F81C 0007		ldrb r0, [r12, +r7]

005BACE6  2835     		cmp r0, #53
005BACE8  BF18 2000		nemov r0, #0
005BACEC  BF08 2001		eqmov r0, #1

005BACF0  2800     		cmp r0, #0
005BACF2  F040 846D		bne #2266 ; 0x005BB5D0


005BACF6  F85F 70F4		ldr r7, [pc, #-244] ; 0x20
005BACFA  F856 C007		ldr r12, [r6, +r7]
005BACFE  F85F 7124		ldr r7, [pc, #-292] ; 0x4
005BAD02  F81C 0007		ldrb r0, [r12, +r7]

005BAD06  2864     		cmp r0, #100
005BAD08  BF18 2000		nemov r0, #0
005BAD0C  BF08 2001		eqmov r0, #1

005BAD10  2800     		cmp r0, #0
005BAD12  F040 8496		bne #2348 ; 0x005BB642


005BAD16  F85F 7114		ldr r7, [pc, #-276] ; 0x20
005BAD1A  F856 C007		ldr r12, [r6, +r7]
005BAD1E  F85F 7144		ldr r7, [pc, #-324] ; 0x4
005BAD22  F81C 0007		ldrb r0, [r12, +r7]

005BAD26  2865     		cmp r0, #101
005BAD28  BF18 2000		nemov r0, #0
005BAD2C  BF08 2001		eqmov r0, #1

005BAD30  2800     		cmp r0, #0
005BAD32  F040 8565		bne #2762 ; 0x005BB800


005BAD36  F000 BE85		b #3338 ; 0x005BBA44


005BAD3A  F85F 713C		ldr r7, [pc, #-316] ; 0x1C
005BAD3E  F856 C007		ldr r12, [r6, +r7]
005BAD42  F8DC 0000		ldr r0, [r12]

005BAD46  4600     		mov r0, r0
005BAD48  F8DF 4748		ldr r4, [pc, #+1864] ; 0x490CBD
005BAD4C  F044 0401		orr r4, r4, #1
005BAD50  47A0     		blx r4

005BAD52  F8DF 772C		ldr r7, [pc, #+1836] ; 0x38
005BAD56  53F0     		strh r0, [r6, +r7]

005BAD58  F8DF 7724		ldr r7, [pc, #+1828] ; 0x38
005BAD5C  5FF0     		ldrsh r0, [r6, +r7]

005BAD5E  F85F 7150		ldr r7, [pc, #-336] ; 0x2C
005BAD62  51F0     		str r0, [r6, +r7]

005BAD64  F85F 7168		ldr r7, [pc, #-360] ; 0x1C
005BAD68  F856 C007		ldr r12, [r6, +r7]
005BAD6C  F8DC 0000		ldr r0, [r12]

005BAD70  4600     		mov r0, r0
005BAD72  F8DF 4724		ldr r4, [pc, #+1828] ; 0x490D6D
005BAD76  F044 0401		orr r4, r4, #1
005BAD7A  47A0     		blx r4

005BAD7C  F85F 7170		ldr r7, [pc, #-368] ; 0x2C
005BAD80  59F7     		ldr r7, [r6, +r7]
005BAD82  42B8     		cmp r0, r7
005BAD84  BF18 2000		nemov r0, #0
005BAD88  BF08 2001		eqmov r0, #1

005BAD8C  F85F 718C		ldr r7, [pc, #-396] ; 0x20
005BAD90  F856 C007		ldr r12, [r6, +r7]
005BAD94  F85F 71C8		ldr r7, [pc, #-456] ; 0x1
005BAD98  F81C 7007		ldrb r7, [r12, +r7]
005BAD9C  4038     		and r0, r0, r7

005BAD9E  2800     		cmp r0, #0
005BADA0  F000 8102		beq #516 ; 0x005BAFA8


005BADA4  F85F 71A4		ldr r7, [pc, #-420] ; 0x20
005BADA8  F856 C007		ldr r12, [r6, +r7]
005BADAC  F85F 71D8		ldr r7, [pc, #-472] ; 0x3
005BADB0  F81C 0007		ldrb r0, [r12, +r7]

005BADB4  2800     		cmp r0, #0
005BADB6  D04B     		beq #150 ; 0x005BAE50


005BADBA  2000     		mov r0, #0 ; 0
005BADBC  F85F 71BC		ldr r7, [pc, #-444] ; 0x20
005BADC0  F856 C007		ldr r12, [r6, +r7]
005BADC4  F85F 71F0		ldr r7, [pc, #-496] ; 0x3
005BADC8  F80C 0007		strb r0, [r12, +r7]

005BADCC  F85F 71F4		ldr r7, [pc, #-500] ; 0x4
005BADD0  F856 C007		ldr r12, [r6, +r7]
005BADD4  F85F 71D8		ldr r7, [pc, #-472] ; 0x1C
005BADD8  F85C 0007		ldr r0, [r12, +r7]

005BADDC  1C40     		add r0, r0, #1

005BADDE  F85F 7204		ldr r7, [pc, #-516] ; 0x4
005BADE2  F856 C007		ldr r12, [r6, +r7]
005BADE6  F85F 71E8		ldr r7, [pc, #-488] ; 0x1C
005BADEA  F84C 0007		str r0, [r12, +r7]

005BADEE  2001     		mov r0, #1 ; 1

005BADF0  4600     		mov r0, r0
005BADF2  F85F 41D0		ldr r4, [pc, #-464] ; 0x490519
005BADF6  F044 0401		orr r4, r4, #1
005BADFA  47A0     		blx r4

005BADFC  F85F 71FC		ldr r7, [pc, #-508] ; 0x20
005BAE00  F856 C007		ldr r12, [r6, +r7]
005BAE04  F85F 721C		ldr r7, [pc, #-540] ; 0xC
005BAE08  F85C 7007		ldr r7, [r12, +r7]
005BAE0C  1BC0     		sub r0, r0, r7

005BAE0E  F85F 7200		ldr r7, [pc, #-512] ; 0x2C
005BAE12  51F0     		str r0, [r6, +r7]

005BAE14  F85F 7208		ldr r7, [pc, #-520] ; 0x2C
005BAE18  59F0     		ldr r0, [r6, +r7]

005BAE1A  F8DF 4680		ldr r4, [pc, #+1664] ; 0x4A4509
005BAE1E  F044 0401		orr r4, r4, #1
005BAE22  47A0     		blx r4

005BAE24  B082     		sub sp, sp, #8
005BAE26  F8CD 1000		str r1, [sp]
005BAE2A  F8DF 7678		ldr r7, [pc, #+1656] ; 0x5BA0C8
005BAE2E  6839     		ldr r1, [r7]
005BAE30  F8DF 466C		ldr r4, [pc, #+1644] ; 0x4A4585
005BAE34  F044 0401		orr r4, r4, #1
005BAE38  47A0     		blx r4
005BAE3A  F8DD 1000		ldr r1, [sp]
005BAE3E  B002     		add sp, sp, #8

005BAE40  F85F 7268		ldr r7, [pc, #-616] ; 0x4
005BAE44  F856 C007		ldr r12, [r6, +r7]
005BAE48  F85F 7248		ldr r7, [pc, #-584] ; 0x20
005BAE4C  F84C 0007		str r0, [r12, +r7]

005BAE50  F85F 7278		ldr r7, [pc, #-632] ; 0x4
005BAE54  F856 C007		ldr r12, [r6, +r7]
005BAE58  F85F 7288		ldr r7, [pc, #-648] ; 0x2
005BAE5C  F81C 0007		ldrb r0, [r12, +r7]

005BAE60  F85F 7260		ldr r7, [pc, #-608] ; 0x20
005BAE64  F856 C007		ldr r12, [r6, +r7]
005BAE68  F85F 7298		ldr r7, [pc, #-664] ; 0x2
005BAE6C  F81C 7007		ldrb r7, [r12, +r7]
005BAE70  4338     		orr r0, r0, r7

005BAE72  F85F 7298		ldr r7, [pc, #-664] ; 0x4
005BAE76  F856 C007		ldr r12, [r6, +r7]
005BAE7A  F85F 72A4		ldr r7, [pc, #-676] ; 0x3
005BAE7E  F81C 7007		ldrb r7, [r12, +r7]
005BAE82  4038     		and r0, r0, r7

005BAE84  2800     		cmp r0, #0
005BAE86  D028     		beq #80 ; 0x005BAEDA


005BAE8A  F85F 7298		ldr r7, [pc, #-664] ; 0x11
005BAE8E  5DF0     		ldrb r0, [r6, +r7]

005BAE90  2800     		cmp r0, #0
005BAE92  D019     		beq #50 ; 0x005BAEC8


005BAE96  F8DF 0610		ldr r0, [pc, #+1552] ; 0x5BA0CC

005BAE9A  F85F 7290		ldr r7, [pc, #-656] ; 0x28
005BAE9E  51F0     		str r0, [r6, +r7]

005BAEA0  F8DF 0608		ldr r0, [pc, #+1544] ; 0x5BA0D0

005BAEA4  F8DF 75DC		ldr r7, [pc, #+1500] ; 0x3C
005BAEA8  51F0     		str r0, [r6, +r7]

005BAEAA  2001     		mov r0, #1 ; 1

005BAEAC  F8DF 75D4		ldr r7, [pc, #+1492] ; 0x3C
005BAEB0  59F3     		ldr r3, [r6, +r7]
005BAEB2  F85F 72A8		ldr r7, [pc, #-680] ; 0x28
005BAEB6  59F2     		ldr r2, [r6, +r7]
005BAEB8  2102     		mov r1, #2 ; 2
005BAEBA  4600     		mov r0, r0
005BAEBC  F85F 42A0		ldr r4, [pc, #-672] ; 0x48FE35
005BAEC0  F044 0401		orr r4, r4, #1
005BAEC4  47A0     		blx r4

005BAEC6  6030     		str r0, [r6]

005BAEC8  2064     		mov r0, #100 ; 100
005BAECA  F85F 72C8		ldr r7, [pc, #-712] ; 0x20
005BAECE  F856 C007		ldr r12, [r6, +r7]
005BAED2  F85F 72F8		ldr r7, [pc, #-760] ; 0x4
005BAED6  F80C 0007		strb r0, [r12, +r7]

005BAEDA  2001     		mov r0, #1 ; 1

005BAEDC  4600     		mov r0, r0
005BAEDE  F85F 42BC		ldr r4, [pc, #-700] ; 0x490519
005BAEE2  F044 0401		orr r4, r4, #1
005BAEE6  47A0     		blx r4

005BAEE8  F85F 72E8		ldr r7, [pc, #-744] ; 0x20
005BAEEC  F856 C007		ldr r12, [r6, +r7]
005BAEF0  F85F 7308		ldr r7, [pc, #-776] ; 0xC
005BAEF4  F85C 7007		ldr r7, [r12, +r7]
005BAEF8  1BC0     		sub r0, r0, r7

005BAEFA  F85F 72EC		ldr r7, [pc, #-748] ; 0x2C
005BAEFE  51F0     		str r0, [r6, +r7]

005BAF00  F85F 7328		ldr r7, [pc, #-808] ; 0x4
005BAF04  F856 C007		ldr r12, [r6, +r7]
005BAF08  F85F 732C		ldr r7, [pc, #-812] ; 0x5
005BAF0C  F81C 0007		ldrb r0, [r12, +r7]

005BAF10  F8DF 759C		ldr r7, [pc, #+1436] ; 0x5BA110
005BAF14  683F     		ldr r7, [r7]
005BAF16  4378     		mul r0, r0, r7

005BAF18  F85F 7308		ldr r7, [pc, #-776] ; 0x30
005BAF1C  51F0     		str r0, [r6, +r7]

005BAF1E  F85F 730C		ldr r7, [pc, #-780] ; 0x30
005BAF22  59F0     		ldr r0, [r6, +r7]

005BAF24  F85F 7310		ldr r7, [pc, #-784] ; 0x34
005BAF28  51F0     		str r0, [r6, +r7]

005BAF2A  F85F 731C		ldr r7, [pc, #-796] ; 0x2C
005BAF2E  59F0     		ldr r0, [r6, +r7]

005BAF30  F85F 731C		ldr r7, [pc, #-796] ; 0x34
005BAF34  59F7     		ldr r7, [r6, +r7]
005BAF36  42B8     		cmp r0, r7
005BAF38  BF38 2000		lomov r0, #0
005BAF3C  BF28 2001		hsmov r0, #1

005BAF40  F85F 7368		ldr r7, [pc, #-872] ; 0x4
005BAF44  F856 C007		ldr r12, [r6, +r7]
005BAF48  F85F 7374		ldr r7, [pc, #-884] ; 0x3
005BAF4C  F81C 7007		ldrb r7, [r12, +r7]
005BAF50  4038     		and r0, r0, r7

005BAF52  2800     		cmp r0, #0
005BAF54  D028     		beq #80 ; 0x005BAFA8


005BAF58  F85F 7368		ldr r7, [pc, #-872] ; 0x11
005BAF5C  5DF0     		ldrb r0, [r6, +r7]

005BAF5E  2800     		cmp r0, #0
005BAF60  D019     		beq #50 ; 0x005BAF96


005BAF64  F8DF 0540		ldr r0, [pc, #+1344] ; 0x5BA0CC

005BAF68  F85F 7360		ldr r7, [pc, #-864] ; 0x28
005BAF6C  51F0     		str r0, [r6, +r7]

005BAF6E  F8DF 0544		ldr r0, [pc, #+1348] ; 0x5BA114

005BAF72  F8DF 7510		ldr r7, [pc, #+1296] ; 0x3C
005BAF76  51F0     		str r0, [r6, +r7]

005BAF78  2001     		mov r0, #1 ; 1

005BAF7A  F8DF 7508		ldr r7, [pc, #+1288] ; 0x3C
005BAF7E  59F3     		ldr r3, [r6, +r7]
005BAF80  F85F 7378		ldr r7, [pc, #-888] ; 0x28
005BAF84  59F2     		ldr r2, [r6, +r7]
005BAF86  2102     		mov r1, #2 ; 2
005BAF88  4600     		mov r0, r0
005BAF8A  F85F 436C		ldr r4, [pc, #-876] ; 0x48FE35
005BAF8E  F044 0401		orr r4, r4, #1
005BAF92  47A0     		blx r4

005BAF94  6030     		str r0, [r6]

005BAF96  2064     		mov r0, #100 ; 100
005BAF98  F85F 7398		ldr r7, [pc, #-920] ; 0x20
005BAF9C  F856 C007		ldr r12, [r6, +r7]
005BAFA0  F85F 73C8		ldr r7, [pc, #-968] ; 0x4
005BAFA4  F80C 0007		strb r0, [r12, +r7]

005BAFA8  F85F 73AC		ldr r7, [pc, #-940] ; 0x1C
005BAFAC  F856 C007		ldr r12, [r6, +r7]
005BAFB0  F8DC 0000		ldr r0, [r12]

005BAFB4  4600     		mov r0, r0
005BAFB6  F8DF 44D8		ldr r4, [pc, #+1240] ; 0x490C65
005BAFBA  F044 0401		orr r4, r4, #1
005BAFBE  47A0     		blx r4

005BAFC0  F8DF 74BC		ldr r7, [pc, #+1212] ; 0x38
005BAFC4  53F0     		strh r0, [r6, +r7]

005BAFC6  F8DF 74B8		ldr r7, [pc, #+1208] ; 0x38
005BAFCA  5FF0     		ldrsh r0, [r6, +r7]

005BAFCC  2708     		mov r7, #8 ; 8
005BAFCE  42B8     		cmp r0, r7
005BAFD0  BF38 2000		lomov r0, #0
005BAFD4  BF28 2001		hsmov r0, #1

005BAFD8  2800     		cmp r0, #0
005BAFDA  D028     		beq #80 ; 0x005BB02E


005BAFDE  F85F 73EC		ldr r7, [pc, #-1004] ; 0x11
005BAFE2  5DF0     		ldrb r0, [r6, +r7]

005BAFE4  2800     		cmp r0, #0
005BAFE6  D019     		beq #50 ; 0x005BB01C


005BAFEA  F8DF 04CC		ldr r0, [pc, #+1228] ; 0x5BA154

005BAFEE  F85F 73E4		ldr r7, [pc, #-996] ; 0x28
005BAFF2  51F0     		str r0, [r6, +r7]

005BAFF4  F8DF 04C4		ldr r0, [pc, #+1220] ; 0x5BA158

005BAFF8  F8DF 7488		ldr r7, [pc, #+1160] ; 0x3C
005BAFFC  51F0     		str r0, [r6, +r7]

005BAFFE  2001     		mov r0, #1 ; 1

005BB000  F8DF 7480		ldr r7, [pc, #+1152] ; 0x3C
005BB004  59F3     		ldr r3, [r6, +r7]
005BB006  F85F 73FC		ldr r7, [pc, #-1020] ; 0x28
005BB00A  59F2     		ldr r2, [r6, +r7]
005BB00C  2101     		mov r1, #1 ; 1
005BB00E  4600     		mov r0, r0
005BB010  F85F 43F4		ldr r4, [pc, #-1012] ; 0x48FE35
005BB014  F044 0401		orr r4, r4, #1
005BB018  47A0     		blx r4

005BB01A  6030     		str r0, [r6]

005BB01C  2032     		mov r0, #50 ; 50
005BB01E  F85F 741C		ldr r7, [pc, #-1052] ; 0x20
005BB022  F856 C007		ldr r12, [r6, +r7]
005BB026  F85F 744C		ldr r7, [pc, #-1100] ; 0x4
005BB02A  F80C 0007		strb r0, [r12, +r7]

005BB02E  F85F 742C		ldr r7, [pc, #-1068] ; 0x20
005BB032  F856 C007		ldr r12, [r6, +r7]
005BB036  F85F 745C		ldr r7, [pc, #-1116] ; 0x4
005BB03A  F81C 0007		ldrb r0, [r12, +r7]

005BB03E  2800     		cmp r0, #0
005BB040  BF18 2000		nemov r0, #0
005BB044  BF08 2001		eqmov r0, #1

005BB048  2800     		cmp r0, #0
005BB04A  D002     		beq #4 ; 0x005BB052


005BB04E  F000 BD08		b #2576 ; 0x005BBA62


005BB052  F000 BD04		b #2568 ; 0x005BBA5E


005BB056  F85F 7454		ldr r7, [pc, #-1108] ; 0x20
005BB05A  F856 C007		ldr r12, [r6, +r7]
005BB05E  4660     		mov r0, r12
005BB060  F85F 7458		ldr r7, [pc, #-1112] ; 0x28
005BB064  19C0     		add r0, r0, r7

005BB066  F85F 745C		ldr r7, [pc, #-1116] ; 0x28
005BB06A  51F0     		str r0, [r6, +r7]

005BB06C  2008     		mov r0, #8 ; 8

005BB06E  F8DF 7410		ldr r7, [pc, #+1040] ; 0x38
005BB072  53F0     		strh r0, [r6, +r7]

005BB074  F85F 746C		ldr r7, [pc, #-1132] ; 0x28
005BB078  59F0     		ldr r0, [r6, +r7]

005BB07A  F85F 747C		ldr r7, [pc, #-1148] ; 0x1C
005BB07E  F856 C007		ldr r12, [r6, +r7]
005BB082  F8DC 3000		ldr r3, [r12]
005BB086  2201     		mov r2, #1 ; 1
005BB088  F8DF 73F4		ldr r7, [pc, #+1012] ; 0x38
005BB08C  5FF1     		ldrsh r1, [r6, +r7]
005BB08E  4600     		mov r0, r0
005BB090  F8DF 43F8		ldr r4, [pc, #+1016] ; 0x490B9D
005BB094  F044 0401		orr r4, r4, #1
005BB098  47A0     		blx r4

005BB09A  2708     		mov r7, #8 ; 8
005BB09C  42B8     		cmp r0, r7
005BB09E  BF08 2000		eqmov r0, #0
005BB0A2  BF18 2001		nemov r0, #1

005BB0A6  2800     		cmp r0, #0
005BB0A8  D00D     		beq #26 ; 0x005BB0C6


005BB0AC  F8DF 7410		ldr r7, [pc, #+1040] ; 0x5BA198
005BB0B0  6838     		ldr r0, [r7]
005BB0B2  F85F 74B0		ldr r7, [pc, #-1200] ; 0x20
005BB0B6  F856 C007		ldr r12, [r6, +r7]
005BB0BA  F85F 74BC		ldr r7, [pc, #-1212] ; 0x1C
005BB0BE  F84C 0007		str r0, [r12, +r7]

005BB0C2  F000 BCCE		b #2460 ; 0x005BBA62


005BB0C6  F85F 74D4		ldr r7, [pc, #-1236] ; 0x11
005BB0CA  5DF0     		ldrb r0, [r6, +r7]

005BB0CC  2800     		cmp r0, #0
005BB0CE  D026     		beq #76 ; 0x005BB11E


005BB0D2  2008     		mov r0, #8 ; 8

005BB0D4  3064     		add r0, r0, #100

005BB0D6  F8DF 73B0		ldr r7, [pc, #+944] ; 0x40
005BB0DA  55F0     		strb r0, [r6, +r7]

005BB0DC  F8DF 03D8		ldr r0, [pc, #+984] ; 0x5BA154

005BB0E0  F85F 74D8		ldr r7, [pc, #-1240] ; 0x28
005BB0E4  51F0     		str r0, [r6, +r7]

005BB0E6  F85F 74E4		ldr r7, [pc, #-1252] ; 0x20
005BB0EA  F856 C007		ldr r12, [r6, +r7]
005BB0EE  4660     		mov r0, r12
005BB0F0  F85F 74E8		ldr r7, [pc, #-1256] ; 0x28
005BB0F4  19C0     		add r0, r0, r7

005BB0F6  F8DF 738C		ldr r7, [pc, #+908] ; 0x3C
005BB0FA  51F0     		str r0, [r6, +r7]

005BB0FC  F8DF 7388		ldr r7, [pc, #+904] ; 0x40
005BB100  5DF0     		ldrb r0, [r6, +r7]

005BB102  F8DF 7380		ldr r7, [pc, #+896] ; 0x3C
005BB106  59F3     		ldr r3, [r6, +r7]
005BB108  F85F 7500		ldr r7, [pc, #-1280] ; 0x28
005BB10C  59F2     		ldr r2, [r6, +r7]
005BB10E  2101     		mov r1, #1 ; 1
005BB110  4600     		mov r0, r0
005BB112  F85F 44F4		ldr r4, [pc, #-1268] ; 0x48FE35
005BB116  F044 0401		orr r4, r4, #1
005BB11A  47A0     		blx r4

005BB11C  6030     		str r0, [r6]

005BB11E  2000     		mov r0, #0 ; 0

005BB120  6030     		str r0, [r6]

005BB122  6830     		ldr r0, [r6]

005BB124  B082     		sub sp, sp, #8
005BB126  F8CD 0000		str r0, [sp]
005BB12A  F85F 753C		ldr r7, [pc, #-1340] ; 0x10
005BB12E  5DF0     		ldrb r0, [r6, +r7]

005BB130  1E40     		sub r0, r0, #1

005BB132  4607     		mov r7, r0
005BB134  F8DD 0000		ldr r0, [sp]
005BB138  B002     		add sp, sp, #8
005BB13A  42B8     		cmp r0, r7
005BB13C  BF98 2000		lsmov r0, #0
005BB140  BF88 2001		himov r0, #1

005BB144  2800     		cmp r0, #0
005BB146  F040 8083		bne #262 ; 0x005BB250


005BB14A  2000     		mov r0, #0 ; 0

005BB14C  B082     		sub sp, sp, #8
005BB14E  F8CD 0000		str r0, [sp]
005BB152  F85F 44E8		ldr r4, [pc, #-1256] ; 0x5BA358
005BB156  F044 0401		orr r4, r4, #1
005BB15A  47A0     		blx r4
005BB15C  B002     		add sp, sp, #8

005BB15E  6837     		ldr r7, [r6]
005BB160  4378     		mul r0, r0, r7

005BB162  F8DF 7310		ldr r7, [pc, #+784] ; 0x18
005BB166  59F7     		ldr r7, [r6, +r7]
005BB168  19C0     		add r0, r0, r7

005BB16A  F85F 7590		ldr r7, [pc, #-1424] ; 0x4
005BB16E  51F0     		str r0, [r6, +r7]

005BB170  F85F 7570		ldr r7, [pc, #-1392] ; 0x20
005BB174  F856 C007		ldr r12, [r6, +r7]
005BB178  F85F 7570		ldr r7, [pc, #-1392] ; 0x28
005BB17C  F81C 0007		ldrb r0, [r12, +r7]

005BB180  F85F 75A8		ldr r7, [pc, #-1448] ; 0x4
005BB184  F856 C007		ldr r12, [r6, +r7]
005BB188  F89C 7000		ldrb r7, [r12]
005BB18C  42B8     		cmp r0, r7
005BB18E  BF18 2000		nemov r0, #0
005BB192  BF08 2001		eqmov r0, #1

005BB196  2800     		cmp r0, #0
005BB198  D056     		beq #172 ; 0x005BB248


005BB19C  F85F 759C		ldr r7, [pc, #-1436] ; 0x20
005BB1A0  F856 C007		ldr r12, [r6, +r7]
005BB1A4  F85F 75A0		ldr r7, [pc, #-1440] ; 0x24
005BB1A8  F85C 0007		ldr r0, [r12, +r7]

005BB1AC  2700     		mov r7, #0 ; 0
005BB1AE  42B8     		cmp r0, r7
005BB1B0  BF18 2000		nemov r0, #0
005BB1B4  BF08 2001		eqmov r0, #1

005BB1B8  2800     		cmp r0, #0
005BB1BA  D00B     		beq #22 ; 0x005BB1D4


005BB1BE  F85F 75E4		ldr r7, [pc, #-1508] ; 0x4
005BB1C2  59F0     		ldr r0, [r6, +r7]
005BB1C4  F85F 75C4		ldr r7, [pc, #-1476] ; 0x20
005BB1C8  F856 C007		ldr r12, [r6, +r7]
005BB1CC  F85F 75C8		ldr r7, [pc, #-1480] ; 0x24
005BB1D0  F84C 0007		str r0, [r12, +r7]

005BB1D4  F85F 75FC		ldr r7, [pc, #-1532] ; 0x4
005BB1D8  59F0     		ldr r0, [r6, +r7]

005BB1DA  F85F 75D8		ldr r7, [pc, #-1496] ; 0x20
005BB1DE  F856 C007		ldr r12, [r6, +r7]
005BB1E2  F85F 75DC		ldr r7, [pc, #-1500] ; 0x24
005BB1E6  F85C 7007		ldr r7, [r12, +r7]
005BB1EA  42B8     		cmp r0, r7
005BB1EC  BF08 2000		eqmov r0, #0
005BB1F0  BF18 2001		nemov r0, #1

005BB1F4  2800     		cmp r0, #0
005BB1F6  D00D     		beq #26 ; 0x005BB214


005BB1FA  F8DF 72C8		ldr r7, [pc, #+712] ; 0x5BA19C
005BB1FE  6838     		ldr r0, [r7]
005BB200  F85F 7600		ldr r7, [pc, #-1536] ; 0x20
005BB204  F856 C007		ldr r12, [r6, +r7]
005BB208  F85F 760C		ldr r7, [pc, #-1548] ; 0x1C
005BB20C  F84C 0007		str r0, [r12, +r7]

005BB210  F000 BC27		b #2126 ; 0x005BBA62


005BB214  2001     		mov r0, #1 ; 1
005BB216  F85F 7614		ldr r7, [pc, #-1556] ; 0x20
005BB21A  F856 C007		ldr r12, [r6, +r7]
005BB21E  F85F 7650		ldr r7, [pc, #-1616] ; 0x1
005BB222  F80C 0007		strb r0, [r12, +r7]

005BB226  F85F 7624		ldr r7, [pc, #-1572] ; 0x20
005BB22A  F856 C007		ldr r12, [r6, +r7]
005BB22E  F85F 7654		ldr r7, [pc, #-1620] ; 0x4
005BB232  F81C 0007		ldrb r0, [r12, +r7]

005BB236  1C40     		add r0, r0, #1

005BB238  F85F 7638		ldr r7, [pc, #-1592] ; 0x20
005BB23C  F856 C007		ldr r12, [r6, +r7]
005BB240  F85F 7668		ldr r7, [pc, #-1640] ; 0x4
005BB244  F80C 0007		strb r0, [r12, +r7]

005BB248  6830     		ldr r0, [r6]

005BB24A  1C40     		add r0, r0, #1

005BB24C  6030     		str r0, [r6]

005BB24E  E768     		b #-304 ; 0x005BB122

005BB250  F85F 7650		ldr r7, [pc, #-1616] ; 0x20
005BB254  F856 C007		ldr r12, [r6, +r7]
005BB258  F85F 7680		ldr r7, [pc, #-1664] ; 0x4
005BB25C  F81C 0007		ldrb r0, [r12, +r7]

005BB260  2832     		cmp r0, #50
005BB262  BF18 2000		nemov r0, #0
005BB266  BF08 2001		eqmov r0, #1

005BB26A  2800     		cmp r0, #0
005BB26C  D00D     		beq #26 ; 0x005BB28A


005BB270  F8DF 7254		ldr r7, [pc, #+596] ; 0x5BA1A0
005BB274  6838     		ldr r0, [r7]
005BB276  F85F 7674		ldr r7, [pc, #-1652] ; 0x20
005BB27A  F856 C007		ldr r12, [r6, +r7]
005BB27E  F85F 7680		ldr r7, [pc, #-1664] ; 0x1C
005BB282  F84C 0007		str r0, [r12, +r7]

005BB286  E3EC     		b #2008 ; 0x005BBA62


005BB28A  F85F 7688		ldr r7, [pc, #-1672] ; 0x20
005BB28E  F856 C007		ldr r12, [r6, +r7]
005BB292  F85F 768C		ldr r7, [pc, #-1676] ; 0x24
005BB296  F85C 0007		ldr r0, [r12, +r7]
005BB29A  F85F 76C0		ldr r7, [pc, #-1728] ; 0x4
005BB29E  51F0     		str r0, [r6, +r7]

005BB2A0  E3DD     		b #1978 ; 0x005BBA5E


005BB2A4  F85F 76A4		ldr r7, [pc, #-1700] ; 0x20
005BB2A8  F856 C007		ldr r12, [r6, +r7]
005BB2AC  F8DF 71CC		ldr r7, [pc, #+460] ; 0x2E
005BB2B0  F83C 0007		ldrh r0, [r12, +r7]

005BB2B4  0200     		lsl r0, r0, #8
005BB2B6  EA40 4010		orr r0, r0, r0, lsr #16
005BB2BA  0400     		lsl r0, r0, #16
005BB2BC  0C00     		lsr r0, r0, #16

005BB2BE  F85F 76E4		ldr r7, [pc, #-1764] ; 0x4
005BB2C2  F856 C007		ldr r12, [r6, +r7]
005BB2C6  F85F 76DC		ldr r7, [pc, #-1756] ; 0xC
005BB2CA  F85C 7007		ldr r7, [r12, +r7]
005BB2CE  42B8     		cmp r0, r7
005BB2D0  BF08 2000		eqmov r0, #0
005BB2D4  BF18 2001		nemov r0, #1

005BB2D8  2800     		cmp r0, #0
005BB2DA  D00D     		beq #26 ; 0x005BB2F8


005BB2DE  F8DF 71EC		ldr r7, [pc, #+492] ; 0x5BA1A4
005BB2E2  6838     		ldr r0, [r7]
005BB2E4  F85F 76E4		ldr r7, [pc, #-1764] ; 0x20
005BB2E8  F856 C007		ldr r12, [r6, +r7]
005BB2EC  F85F 76F0		ldr r7, [pc, #-1776] ; 0x1C
005BB2F0  F84C 0007		str r0, [r12, +r7]

005BB2F4  E3B5     		b #1898 ; 0x005BBA62


005BB2F8  2000     		mov r0, #0 ; 0
005BB2FA  F85F 76F8		ldr r7, [pc, #-1784] ; 0x20
005BB2FE  F856 C007		ldr r12, [r6, +r7]
005BB302  F8DF 7170		ldr r7, [pc, #+368] ; 0x18
005BB306  F84C 0007		str r0, [r12, +r7]

005BB30A  F85F 7708		ldr r7, [pc, #-1800] ; 0x20
005BB30E  F856 C007		ldr r12, [r6, +r7]
005BB312  F8DF 7164		ldr r7, [pc, #+356] ; 0x29
005BB316  F81C 0007		ldrb r0, [r12, +r7]
005BB31A  F85F 7740		ldr r7, [pc, #-1856] ; 0x4
005BB31E  F856 C007		ldr r12, [r6, +r7]
005BB322  F85F 7740		ldr r7, [pc, #-1856] ; 0x6
005BB326  F80C 0007		strb r0, [r12, +r7]

005BB32A  F85F 7728		ldr r7, [pc, #-1832] ; 0x20
005BB32E  F856 C007		ldr r12, [r6, +r7]
005BB332  F85F 7758		ldr r7, [pc, #-1880] ; 0x4
005BB336  F81C 0007		ldrb r0, [r12, +r7]

005BB33A  1C40     		add r0, r0, #1

005BB33C  F85F 773C		ldr r7, [pc, #-1852] ; 0x20
005BB340  F856 C007		ldr r12, [r6, +r7]
005BB344  F85F 776C		ldr r7, [pc, #-1900] ; 0x4
005BB348  F80C 0007		strb r0, [r12, +r7]

005BB34C  E387     		b #1806 ; 0x005BBA5E


005BB350  F85F 7754		ldr r7, [pc, #-1876] ; 0x1C
005BB354  F856 C007		ldr r12, [r6, +r7]
005BB358  F8DC 0000		ldr r0, [r12]

005BB35C  4600     		mov r0, r0
005BB35E  F8DF 4130		ldr r4, [pc, #+304] ; 0x490C65
005BB362  F044 0401		orr r4, r4, #1
005BB366  47A0     		blx r4

005BB368  2800     		cmp r0, #0
005BB36A  BF18 2000		nemov r0, #0
005BB36E  BF08 2001		eqmov r0, #1

005BB372  2800     		cmp r0, #0
005BB374  D002     		beq #4 ; 0x005BB37C


005BB378  E373     		b #1766 ; 0x005BBA62


005BB37C  F85F 77A4		ldr r7, [pc, #-1956] ; 0x4
005BB380  F856 C007		ldr r12, [r6, +r7]
005BB384  F85F 779C		ldr r7, [pc, #-1948] ; 0xC
005BB388  F85C 0007		ldr r0, [r12, +r7]

005BB38C  F85F 778C		ldr r7, [pc, #-1932] ; 0x20
005BB390  F856 C007		ldr r12, [r6, +r7]
005BB394  F8DF 70DC		ldr r7, [pc, #+220] ; 0x18
005BB398  F85C 7007		ldr r7, [r12, +r7]
005BB39C  1BC0     		sub r0, r0, r7

005BB39E  6030     		str r0, [r6]

005BB3A0  F85F 77C8		ldr r7, [pc, #-1992] ; 0x4
005BB3A4  F856 C007		ldr r12, [r6, +r7]
005BB3A8  F85F 77C4		ldr r7, [pc, #-1988] ; 0x8
005BB3AC  F85C 0007		ldr r0, [r12, +r7]

005BB3B0  F85F 77B0		ldr r7, [pc, #-1968] ; 0x20
005BB3B4  F856 C007		ldr r12, [r6, +r7]
005BB3B8  F8DF 70B8		ldr r7, [pc, #+184] ; 0x18
005BB3BC  F85C 7007		ldr r7, [r12, +r7]
005BB3C0  19C0     		add r0, r0, r7

005BB3C2  F85F 77B8		ldr r7, [pc, #-1976] ; 0x28
005BB3C6  51F0     		str r0, [r6, +r7]

005BB3C8  6830     		ldr r0, [r6]

005BB3CA  F8DF 70B4		ldr r7, [pc, #+180] ; 0x38
005BB3CE  53F0     		strh r0, [r6, +r7]

005BB3D0  F85F 77C8		ldr r7, [pc, #-1992] ; 0x28
005BB3D4  59F0     		ldr r0, [r6, +r7]

005BB3D6  F85F 77D8		ldr r7, [pc, #-2008] ; 0x1C
005BB3DA  F856 C007		ldr r12, [r6, +r7]
005BB3DE  F8DC 3000		ldr r3, [r12]
005BB3E2  2201     		mov r2, #1 ; 1
005BB3E4  F8DF 7098		ldr r7, [pc, #+152] ; 0x38
005BB3E8  5FF1     		ldrsh r1, [r6, +r7]
005BB3EA  4600     		mov r0, r0
005BB3EC  F8DF 409C		ldr r4, [pc, #+156] ; 0x490B9D
005BB3F0  F044 0401		orr r4, r4, #1
005BB3F4  47A0     		blx r4

005BB3F6  F85F 77F4		ldr r7, [pc, #-2036] ; 0x20
005BB3FA  F856 C007		ldr r12, [r6, +r7]
005BB3FE  F8DF 7074		ldr r7, [pc, #+116] ; 0x18
005BB402  F85C 7007		ldr r7, [r12, +r7]
005BB406  19C0     		add r0, r0, r7

005BB408  F85F 7808		ldr r7, [pc, #-2056] ; 0x20
005BB40C  F856 C007		ldr r12, [r6, +r7]
005BB410  F8DF 7060		ldr r7, [pc, #+96] ; 0x18
005BB414  F84C 0007		str r0, [r12, +r7]

005BB418  F85F 7828		ldr r7, [pc, #-2088] ; 0x11
005BB41C  5DF0     		ldrb r0, [r6, +r7]

005BB41E  2800     		cmp r0, #0
005BB420  D06A     		beq #212 ; 0x005BB4F8


005BB424  6830     		ldr r0, [r6]

005BB426  2850     		cmp r0, #80
005BB428  BF98 2000		lsmov r0, #0
005BB42C  BF88 2001		himov r0, #1

005BB430  2800     		cmp r0, #0
005BB432  D002     		beq #4 ; 0x005BB43A


005BB436  2050     		mov r0, #80 ; 80
005BB438  6030     		str r0, [r6]

005BB43A  6830     		ldr r0, [r6]

005BB43C  3064     		add r0, r0, #100

005BB43E  F8DF 7048		ldr r7, [pc, #+72] ; 0x40
005BB442  55F0     		strb r0, [r6, +r7]

005BB444  F8DF 0070		ldr r0, [pc, #+112] ; 0x5BA154

005BB448  F85F 7840		ldr r7, [pc, #-2112] ; 0x28
005BB44C  51F0     		str r0, [r6, +r7]

005BB44E  F85F 7874		ldr r7, [pc, #-2164] ; 0x4
005BB452  F856 C007		ldr r12, [r6, +r7]
005BB456  F85F 7870		ldr r7, [pc, #-2160] ; 0x8
005BB45A  F85C 0007		ldr r0, [r12, +r7]

005BB45E  F85F 785C		ldr r7, [pc, #-2140] ; 0x20
005BB462  F856 C007		ldr r12, [r6, +r7]
005BB466  F8DF 700C		ldr r7, [pc, #+12] ; 0x18
005BB46A  F85C 7007		ldr r7, [r12, +r7]
005BB46E  19C0     		add r0, r0, r7

005BB470  E02E     		b #92

005BB474  00000018		; 0x00000018
005BB478  00000029		; 0x00000029
005BB47C  0000002E		; 0x0000002E
005BB480  00000038		; 0x00000038
005BB484  0000003C		; 0x0000003C
005BB488  00000040		; 0x00000040
005BB48C  00490B9D		; 0x00490B9D
005BB490  00490C65		; 0x00490C65
005BB494  00490CBD		; 0x00490CBD
005BB498  00490D6D		; 0x00490D6D
005BB49C  004A4509		; 0x004A4509
005BB4A0  004A4585		; 0x004A4585
005BB4A4  005BA0C8		; 0x005BA0C8
005BB4A8  005BA0CC		; 0x005BA0CC
005BB4AC  005BA0D0		; 0x005BA0D0
005BB4B0  005BA110		; 0x005BA110
005BB4B4  005BA114		; 0x005BA114
005BB4B8  005BA154		; 0x005BA154
005BB4BC  005BA158		; 0x005BA158
005BB4C0  005BA198		; 0x005BA198
005BB4C4  005BA19C		; 0x005BA19C
005BB4C8  005BA1A0		; 0x005BA1A0
005BB4CC  005BA1A4		; 0x005BA1A4

005BB4D0  F85F 7050		ldr r7, [pc, #-80] ; 0x3C
005BB4D4  51F0     		str r0, [r6, +r7]

005BB4D6  F85F 7050		ldr r7, [pc, #-80] ; 0x40
005BB4DA  5DF0     		ldrb r0, [r6, +r7]

005BB4DC  F85F 705C		ldr r7, [pc, #-92] ; 0x3C
005BB4E0  59F3     		ldr r3, [r6, +r7]
005BB4E2  F85F 78D8		ldr r7, [pc, #-2264] ; 0x28
005BB4E6  59F2     		ldr r2, [r6, +r7]
005BB4E8  2101     		mov r1, #1 ; 1
005BB4EA  4600     		mov r0, r0
005BB4EC  F85F 48D0		ldr r4, [pc, #-2256] ; 0x48FE35
005BB4F0  F044 0401		orr r4, r4, #1
005BB4F4  47A0     		blx r4

005BB4F6  6030     		str r0, [r6]

005BB4F8  F85F 78F8		ldr r7, [pc, #-2296] ; 0x20
005BB4FC  F856 C007		ldr r12, [r6, +r7]
005BB500  F85F 7090		ldr r7, [pc, #-144] ; 0x18
005BB504  F85C 0007		ldr r0, [r12, +r7]

005BB508  F85F 7930		ldr r7, [pc, #-2352] ; 0x4
005BB50C  F856 C007		ldr r12, [r6, +r7]
005BB510  F85F 7928		ldr r7, [pc, #-2344] ; 0xC
005BB514  F85C 7007		ldr r7, [r12, +r7]
005BB518  42B8     		cmp r0, r7
005BB51A  BF28 2000		hsmov r0, #0
005BB51E  BF38 2001		lomov r0, #1

005BB522  2800     		cmp r0, #0
005BB524  D002     		beq #4 ; 0x005BB52C


005BB528  E29B     		b #1334 ; 0x005BBA62


005BB52C  2001     		mov r0, #1 ; 1
005BB52E  F85F 7954		ldr r7, [pc, #-2388] ; 0x4
005BB532  F856 C007		ldr r12, [r6, +r7]
005BB536  F85F 795C		ldr r7, [pc, #-2396] ; 0x4
005BB53A  F80C 0007		strb r0, [r12, +r7]

005BB53E  2001     		mov r0, #1 ; 1

005BB540  4600     		mov r0, r0
005BB542  F85F 4920		ldr r4, [pc, #-2336] ; 0x490519
005BB546  F044 0401		orr r4, r4, #1
005BB54A  47A0     		blx r4

005BB54C  F85F 794C		ldr r7, [pc, #-2380] ; 0x20
005BB550  F856 C007		ldr r12, [r6, +r7]
005BB554  F85F 7968		ldr r7, [pc, #-2408] ; 0x10
005BB558  F84C 0007		str r0, [r12, +r7]

005BB55C  F85F 7984		ldr r7, [pc, #-2436] ; 0x4
005BB560  F856 C007		ldr r12, [r6, +r7]
005BB564  F85F 70F4		ldr r7, [pc, #-244] ; 0x18
005BB568  F85C 0007		ldr r0, [r12, +r7]

005BB56C  1C40     		add r0, r0, #1

005BB56E  F85F 7994		ldr r7, [pc, #-2452] ; 0x4
005BB572  F856 C007		ldr r12, [r6, +r7]
005BB576  F85F 7104		ldr r7, [pc, #-260] ; 0x18
005BB57A  F84C 0007		str r0, [r12, +r7]

005BB57E  F85F 79A4		ldr r7, [pc, #-2468] ; 0x4
005BB582  F856 C007		ldr r12, [r6, +r7]
005BB586  F85F 79B0		ldr r7, [pc, #-2480] ; 0x3
005BB58A  F81C 0007		ldrb r0, [r12, +r7]

005BB58E  2800     		cmp r0, #0
005BB590  D00B     		beq #22 ; 0x005BB5AA


005BB594  2000     		mov r0, #0 ; 0
005BB596  F85F 7994		ldr r7, [pc, #-2452] ; 0x20
005BB59A  F856 C007		ldr r12, [r6, +r7]
005BB59E  F85F 79C4		ldr r7, [pc, #-2500] ; 0x4
005BB5A2  F80C 0007		strb r0, [r12, +r7]

005BB5A6  E25C     		b #1208 ; 0x005BBA62


005BB5AA  F85F 79A8		ldr r7, [pc, #-2472] ; 0x20
005BB5AE  F856 C007		ldr r12, [r6, +r7]
005BB5B2  F85F 79D8		ldr r7, [pc, #-2520] ; 0x4
005BB5B6  F81C 0007		ldrb r0, [r12, +r7]

005BB5BA  1C40     		add r0, r0, #1

005BB5BC  F85F 79BC		ldr r7, [pc, #-2492] ; 0x20
005BB5C0  F856 C007		ldr r12, [r6, +r7]
005BB5C4  F85F 79EC		ldr r7, [pc, #-2540] ; 0x4
005BB5C8  F80C 0007		strb r0, [r12, +r7]

005BB5CC  E247     		b #1166 ; 0x005BBA5E


005BB5D0  F85F 79E0		ldr r7, [pc, #-2528] ; 0x11
005BB5D4  5DF0     		ldrb r0, [r6, +r7]

005BB5D6  2800     		cmp r0, #0
005BB5D8  D019     		beq #50 ; 0x005BB60E


005BB5DC  F85F 0138		ldr r0, [pc, #-312] ; 0x5BA0CC

005BB5E0  F85F 79D8		ldr r7, [pc, #-2520] ; 0x28
005BB5E4  51F0     		str r0, [r6, +r7]

005BB5E6  F8DF 048C		ldr r0, [pc, #+1164] ; 0x5BA1A8

005BB5EA  F85F 7168		ldr r7, [pc, #-360] ; 0x3C
005BB5EE  51F0     		str r0, [r6, +r7]

005BB5F0  2001     		mov r0, #1 ; 1

005BB5F2  F85F 7170		ldr r7, [pc, #-368] ; 0x3C
005BB5F6  59F3     		ldr r3, [r6, +r7]
005BB5F8  F85F 79F0		ldr r7, [pc, #-2544] ; 0x28
005BB5FC  59F2     		ldr r2, [r6, +r7]
005BB5FE  2102     		mov r1, #2 ; 2
005BB600  4600     		mov r0, r0
005BB602  F85F 49E4		ldr r4, [pc, #-2532] ; 0x48FE35
005BB606  F044 0401		orr r4, r4, #1
005BB60A  47A0     		blx r4

005BB60C  6030     		str r0, [r6]

005BB60E  2001     		mov r0, #1 ; 1

005BB610  4600     		mov r0, r0
005BB612  F85F 49F0		ldr r4, [pc, #-2544] ; 0x490519
005BB616  F044 0401		orr r4, r4, #1
005BB61A  47A0     		blx r4

005BB61C  F85F 7A1C		ldr r7, [pc, #-2588] ; 0x20
005BB620  F856 C007		ldr r12, [r6, +r7]
005BB624  F85F 7A3C		ldr r7, [pc, #-2620] ; 0xC
005BB628  F84C 0007		str r0, [r12, +r7]

005BB62C  2064     		mov r0, #100 ; 100
005BB62E  F85F 7A2C		ldr r7, [pc, #-2604] ; 0x20
005BB632  F856 C007		ldr r12, [r6, +r7]
005BB636  F85F 7A5C		ldr r7, [pc, #-2652] ; 0x4
005BB63A  F80C 0007		strb r0, [r12, +r7]

005BB63E  E20E     		b #1052 ; 0x005BBA5E


005BB642  F85F 7A40		ldr r7, [pc, #-2624] ; 0x20
005BB646  F856 C007		ldr r12, [r6, +r7]
005BB64A  4660     		mov r0, r12
005BB64C  F85F 7A44		ldr r7, [pc, #-2628] ; 0x28
005BB650  19C0     		add r0, r0, r7

005BB652  F85F 7A48		ldr r7, [pc, #-2632] ; 0x28
005BB656  51F0     		str r0, [r6, +r7]

005BB658  F85F 7A50		ldr r7, [pc, #-2640] ; 0x28
005BB65C  59F0     		ldr r0, [r6, +r7]

005BB65E  2208     		mov r2, #8 ; 8
005BB660  2100     		mov r1, #0 ; 0
005BB662  4600     		mov r0, r0
005BB664  F85F 4A34		ldr r4, [pc, #-2612] ; 0x490795
005BB668  F044 0401		orr r4, r4, #1
005BB66C  47A0     		blx r4

005BB66E  6030     		str r0, [r6]

005BB670  2001     		mov r0, #1 ; 1

005BB672  4600     		mov r0, r0
005BB674  F85F 4A54		ldr r4, [pc, #-2644] ; 0x490519
005BB678  F044 0401		orr r4, r4, #1
005BB67C  47A0     		blx r4

005BB67E  F85F 7A7C		ldr r7, [pc, #-2684] ; 0x20
005BB682  F856 C007		ldr r12, [r6, +r7]
005BB686  F85F 7A9C		ldr r7, [pc, #-2716] ; 0xC
005BB68A  F84C 0007		str r0, [r12, +r7]

005BB68E  F85F 7AB4		ldr r7, [pc, #-2740] ; 0x4
005BB692  F856 C007		ldr r12, [r6, +r7]
005BB696  F89C 0000		ldrb r0, [r12]
005BB69A  F85F 7A98		ldr r7, [pc, #-2712] ; 0x20
005BB69E  F856 C007		ldr r12, [r6, +r7]
005BB6A2  F85F 7A98		ldr r7, [pc, #-2712] ; 0x28
005BB6A6  F80C 0007		strb r0, [r12, +r7]

005BB6AA  F85F 7AD0		ldr r7, [pc, #-2768] ; 0x4
005BB6AE  F856 C007		ldr r12, [r6, +r7]
005BB6B2  F85F 7AD4		ldr r7, [pc, #-2772] ; 0x5
005BB6B6  F81C 0007		ldrb r0, [r12, +r7]
005BB6BA  F85F 7AB8		ldr r7, [pc, #-2744] ; 0x20
005BB6BE  F856 C007		ldr r12, [r6, +r7]
005BB6C2  F85F 724C		ldr r7, [pc, #-588] ; 0x29
005BB6C6  F80C 0007		strb r0, [r12, +r7]

005BB6CA  F85F 7AF0		ldr r7, [pc, #-2800] ; 0x4
005BB6CE  F856 C007		ldr r12, [r6, +r7]
005BB6D2  F85F 7AD8		ldr r7, [pc, #-2776] ; 0x14
005BB6D6  F85C 0007		ldr r0, [r12, +r7]

005BB6DA  F8DF 738C		ldr r7, [pc, #+908] ; 0x42
005BB6DE  53F0     		strh r0, [r6, +r7]

005BB6E0  F8DF 7384		ldr r7, [pc, #+900] ; 0x42
005BB6E4  5BF0     		ldrh r0, [r6, +r7]

005BB6E6  0200     		lsl r0, r0, #8
005BB6E8  EA40 4010		orr r0, r0, r0, lsr #16
005BB6EC  0400     		lsl r0, r0, #16
005BB6EE  0C00     		lsr r0, r0, #16

005BB6F0  F85F 7AF0		ldr r7, [pc, #-2800] ; 0x20
005BB6F4  F856 C007		ldr r12, [r6, +r7]
005BB6F8  F85F 7280		ldr r7, [pc, #-640] ; 0x2E
005BB6FC  F82C 0007		strh r0, [r12, +r7]

005BB700  F85F 7B00		ldr r7, [pc, #-2816] ; 0x20
005BB704  F856 C007		ldr r12, [r6, +r7]
005BB708  4660     		mov r0, r12
005BB70A  F85F 7B00		ldr r7, [pc, #-2816] ; 0x28
005BB70E  19C0     		add r0, r0, r7

005BB710  F85F 7B08		ldr r7, [pc, #-2824] ; 0x28
005BB714  51F0     		str r0, [r6, +r7]

005BB716  2008     		mov r0, #8 ; 8

005BB718  F85F 729C		ldr r7, [pc, #-668] ; 0x38
005BB71C  53F0     		strh r0, [r6, +r7]

005BB71E  F85F 7B14		ldr r7, [pc, #-2836] ; 0x28
005BB722  59F0     		ldr r0, [r6, +r7]

005BB724  F85F 7B28		ldr r7, [pc, #-2856] ; 0x1C
005BB728  F856 C007		ldr r12, [r6, +r7]
005BB72C  F8DC 3000		ldr r3, [r12]
005BB730  2201     		mov r2, #1 ; 1
005BB732  F85F 72B4		ldr r7, [pc, #-692] ; 0x38
005BB736  5FF1     		ldrsh r1, [r6, +r7]
005BB738  4600     		mov r0, r0
005BB73A  F8DF 4330		ldr r4, [pc, #+816] ; 0x490C01
005BB73E  F044 0401		orr r4, r4, #1
005BB742  47A0     		blx r4

005BB744  2708     		mov r7, #8 ; 8
005BB746  42B8     		cmp r0, r7
005BB748  BF08 2000		eqmov r0, #0
005BB74C  BF18 2001		nemov r0, #1

005BB750  2800     		cmp r0, #0
005BB752  D00D     		beq #26 ; 0x005BB770


005BB756  F8DF 7320		ldr r7, [pc, #+800] ; 0x5BA1E8
005BB75A  6838     		ldr r0, [r7]
005BB75C  F85F 7B5C		ldr r7, [pc, #-2908] ; 0x20
005BB760  F856 C007		ldr r12, [r6, +r7]
005BB764  F85F 7B68		ldr r7, [pc, #-2920] ; 0x1C
005BB768  F84C 0007		str r0, [r12, +r7]

005BB76C  E179     		b #754 ; 0x005BBA62


005BB770  F85F 7B80		ldr r7, [pc, #-2944] ; 0x11
005BB774  5DF0     		ldrb r0, [r6, +r7]

005BB776  2800     		cmp r0, #0
005BB778  D026     		beq #76 ; 0x005BB7C8


005BB77C  2008     		mov r0, #8 ; 8

005BB77E  3064     		add r0, r0, #100

005BB780  F85F 72FC		ldr r7, [pc, #-764] ; 0x40
005BB784  55F0     		strb r0, [r6, +r7]

005BB786  F85F 02E0		ldr r0, [pc, #-736] ; 0x5BA0CC

005BB78A  F85F 7B80		ldr r7, [pc, #-2944] ; 0x28
005BB78E  51F0     		str r0, [r6, +r7]

005BB790  F85F 7B90		ldr r7, [pc, #-2960] ; 0x20
005BB794  F856 C007		ldr r12, [r6, +r7]
005BB798  4660     		mov r0, r12
005BB79A  F85F 7B90		ldr r7, [pc, #-2960] ; 0x28
005BB79E  19C0     		add r0, r0, r7

005BB7A0  F85F 7320		ldr r7, [pc, #-800] ; 0x3C
005BB7A4  51F0     		str r0, [r6, +r7]

005BB7A6  F85F 7320		ldr r7, [pc, #-800] ; 0x40
005BB7AA  5DF0     		ldrb r0, [r6, +r7]

005BB7AC  F85F 732C		ldr r7, [pc, #-812] ; 0x3C
005BB7B0  59F3     		ldr r3, [r6, +r7]
005BB7B2  F85F 7BA8		ldr r7, [pc, #-2984] ; 0x28
005BB7B6  59F2     		ldr r2, [r6, +r7]
005BB7B8  2102     		mov r1, #2 ; 2
005BB7BA  4600     		mov r0, r0
005BB7BC  F85F 4BA0		ldr r4, [pc, #-2976] ; 0x48FE35
005BB7C0  F044 0401		orr r4, r4, #1
005BB7C4  47A0     		blx r4

005BB7C6  6030     		str r0, [r6]

005BB7C8  2000     		mov r0, #0 ; 0
005BB7CA  F85F 7BC8		ldr r7, [pc, #-3016] ; 0x20
005BB7CE  F856 C007		ldr r12, [r6, +r7]
005BB7D2  F85F 7360		ldr r7, [pc, #-864] ; 0x18
005BB7D6  F84C 0007		str r0, [r12, +r7]

005BB7DA  F85F 7BD8		ldr r7, [pc, #-3032] ; 0x20
005BB7DE  F856 C007		ldr r12, [r6, +r7]
005BB7E2  F85F 7C08		ldr r7, [pc, #-3080] ; 0x4
005BB7E6  F81C 0007		ldrb r0, [r12, +r7]

005BB7EA  1C40     		add r0, r0, #1

005BB7EC  F85F 7BEC		ldr r7, [pc, #-3052] ; 0x20
005BB7F0  F856 C007		ldr r12, [r6, +r7]
005BB7F4  F85F 7C1C		ldr r7, [pc, #-3100] ; 0x4
005BB7F8  F80C 0007		strb r0, [r12, +r7]

005BB7FC  E12F     		b #606 ; 0x005BBA5E


005BB800  F85F 7C04		ldr r7, [pc, #-3076] ; 0x1C
005BB804  F856 C007		ldr r12, [r6, +r7]
005BB808  F8DC 0000		ldr r0, [r12]

005BB80C  4600     		mov r0, r0
005BB80E  F85F 437C		ldr r4, [pc, #-892] ; 0x490CBD
005BB812  F044 0401		orr r4, r4, #1
005BB816  47A0     		blx r4

005BB818  2800     		cmp r0, #0
005BB81A  BF18 2000		nemov r0, #0
005BB81E  BF08 2001		eqmov r0, #1

005BB822  2800     		cmp r0, #0
005BB824  D002     		beq #4 ; 0x005BB82C


005BB828  E11B     		b #566 ; 0x005BBA62


005BB82C  F85F 7C54		ldr r7, [pc, #-3156] ; 0x4
005BB830  F856 C007		ldr r12, [r6, +r7]
005BB834  F85F 7C3C		ldr r7, [pc, #-3132] ; 0x14
005BB838  F85C 0007		ldr r0, [r12, +r7]

005BB83C  F85F 7C3C		ldr r7, [pc, #-3132] ; 0x20
005BB840  F856 C007		ldr r12, [r6, +r7]
005BB844  F85F 73D4		ldr r7, [pc, #-980] ; 0x18
005BB848  F85C 7007		ldr r7, [r12, +r7]
005BB84C  1BC0     		sub r0, r0, r7

005BB84E  6030     		str r0, [r6]

005BB850  F85F 7C54		ldr r7, [pc, #-3156] ; 0x1C
005BB854  F856 C007		ldr r12, [r6, +r7]
005BB858  F8DC 0000		ldr r0, [r12]

005BB85C  4600     		mov r0, r0
005BB85E  F85F 43CC		ldr r4, [pc, #-972] ; 0x490CBD
005BB862  F044 0401		orr r4, r4, #1
005BB866  47A0     		blx r4

005BB868  F85F 73EC		ldr r7, [pc, #-1004] ; 0x38
005BB86C  53F0     		strh r0, [r6, +r7]

005BB86E  F85F 73F0		ldr r7, [pc, #-1008] ; 0x38
005BB872  5FF0     		ldrsh r0, [r6, +r7]

005BB874  6837     		ldr r7, [r6]
005BB876  42B8     		cmp r0, r7
005BB878  BF28 2000		hsmov r0, #0
005BB87C  BF38 2001		lomov r0, #1

005BB880  2800     		cmp r0, #0
005BB882  D00D     		beq #26 ; 0x005BB8A0


005BB886  F85F 7C88		ldr r7, [pc, #-3208] ; 0x1C
005BB88A  F856 C007		ldr r12, [r6, +r7]
005BB88E  F8DC 0000		ldr r0, [r12]

005BB892  4600     		mov r0, r0
005BB894  F85F 4404		ldr r4, [pc, #-1028] ; 0x490CBD
005BB898  F044 0401		orr r4, r4, #1
005BB89C  47A0     		blx r4

005BB89E  6030     		str r0, [r6]

005BB8A0  F85F 7CC8		ldr r7, [pc, #-3272] ; 0x4
005BB8A4  F856 C007		ldr r12, [r6, +r7]
005BB8A8  F85F 7CBC		ldr r7, [pc, #-3260] ; 0x10
005BB8AC  F85C 0007		ldr r0, [r12, +r7]

005BB8B0  F85F 7CB0		ldr r7, [pc, #-3248] ; 0x20
005BB8B4  F856 C007		ldr r12, [r6, +r7]
005BB8B8  F85F 7448		ldr r7, [pc, #-1096] ; 0x18
005BB8BC  F85C 7007		ldr r7, [r12, +r7]
005BB8C0  19C0     		add r0, r0, r7

005BB8C2  F85F 7CB8		ldr r7, [pc, #-3256] ; 0x28
005BB8C6  51F0     		str r0, [r6, +r7]

005BB8C8  6830     		ldr r0, [r6]

005BB8CA  F85F 744C		ldr r7, [pc, #-1100] ; 0x38
005BB8CE  53F0     		strh r0, [r6, +r7]

005BB8D0  F85F 7CC8		ldr r7, [pc, #-3272] ; 0x28
005BB8D4  59F0     		ldr r0, [r6, +r7]

005BB8D6  F85F 7CD8		ldr r7, [pc, #-3288] ; 0x1C
005BB8DA  F856 C007		ldr r12, [r6, +r7]
005BB8DE  F8DC 3000		ldr r3, [r12]
005BB8E2  2201     		mov r2, #1 ; 1
005BB8E4  F85F 7468		ldr r7, [pc, #-1128] ; 0x38
005BB8E8  5FF1     		ldrsh r1, [r6, +r7]
005BB8EA  4600     		mov r0, r0
005BB8EC  F8DF 417C		ldr r4, [pc, #+380] ; 0x490C01
005BB8F0  F044 0401		orr r4, r4, #1
005BB8F4  47A0     		blx r4

005BB8F6  F85F 7CF4		ldr r7, [pc, #-3316] ; 0x20
005BB8FA  F856 C007		ldr r12, [r6, +r7]
005BB8FE  F85F 748C		ldr r7, [pc, #-1164] ; 0x18
005BB902  F85C 7007		ldr r7, [r12, +r7]
005BB906  19C0     		add r0, r0, r7

005BB908  F85F 7D08		ldr r7, [pc, #-3336] ; 0x20
005BB90C  F856 C007		ldr r12, [r6, +r7]
005BB910  F85F 74A0		ldr r7, [pc, #-1184] ; 0x18
005BB914  F84C 0007		str r0, [r12, +r7]

005BB918  F85F 7D28		ldr r7, [pc, #-3368] ; 0x11
005BB91C  5DF0     		ldrb r0, [r6, +r7]

005BB91E  2800     		cmp r0, #0
005BB920  D03A     		beq #116 ; 0x005BB998


005BB924  6830     		ldr r0, [r6]

005BB926  2850     		cmp r0, #80
005BB928  BF98 2000		lsmov r0, #0
005BB92C  BF88 2001		himov r0, #1

005BB930  2800     		cmp r0, #0
005BB932  D002     		beq #4 ; 0x005BB93A


005BB936  2050     		mov r0, #80 ; 80
005BB938  6030     		str r0, [r6]

005BB93A  6830     		ldr r0, [r6]

005BB93C  3064     		add r0, r0, #100

005BB93E  F85F 74B8		ldr r7, [pc, #-1208] ; 0x40
005BB942  55F0     		strb r0, [r6, +r7]

005BB944  F85F 04A0		ldr r0, [pc, #-1184] ; 0x5BA0CC

005BB948  F85F 7D40		ldr r7, [pc, #-3392] ; 0x28
005BB94C  51F0     		str r0, [r6, +r7]

005BB94E  F85F 7D74		ldr r7, [pc, #-3444] ; 0x4
005BB952  F856 C007		ldr r12, [r6, +r7]
005BB956  F85F 7D68		ldr r7, [pc, #-3432] ; 0x10
005BB95A  F85C 0007		ldr r0, [r12, +r7]

005BB95E  F85F 7D5C		ldr r7, [pc, #-3420] ; 0x20
005BB962  F856 C007		ldr r12, [r6, +r7]
005BB966  F85F 74F4		ldr r7, [pc, #-1268] ; 0x18
005BB96A  F85C 7007		ldr r7, [r12, +r7]
005BB96E  19C0     		add r0, r0, r7

005BB970  F85F 74F0		ldr r7, [pc, #-1264] ; 0x3C
005BB974  51F0     		str r0, [r6, +r7]

005BB976  F85F 74F0		ldr r7, [pc, #-1264] ; 0x40
005BB97A  5DF0     		ldrb r0, [r6, +r7]

005BB97C  F85F 74FC		ldr r7, [pc, #-1276] ; 0x3C
005BB980  59F3     		ldr r3, [r6, +r7]
005BB982  F85F 7D78		ldr r7, [pc, #-3448] ; 0x28
005BB986  59F2     		ldr r2, [r6, +r7]
005BB988  2102     		mov r1, #2 ; 2
005BB98A  4600     		mov r0, r0
005BB98C  F85F 4D70		ldr r4, [pc, #-3440] ; 0x48FE35
005BB990  F044 0401		orr r4, r4, #1
005BB994  47A0     		blx r4

005BB996  6030     		str r0, [r6]

005BB998  F85F 7D98		ldr r7, [pc, #-3480] ; 0x20
005BB99C  F856 C007		ldr r12, [r6, +r7]
005BB9A0  F85F 7530		ldr r7, [pc, #-1328] ; 0x18
005BB9A4  F85C 0007		ldr r0, [r12, +r7]

005BB9A8  F85F 7DD0		ldr r7, [pc, #-3536] ; 0x4
005BB9AC  F856 C007		ldr r12, [r6, +r7]
005BB9B0  F85F 7DB8		ldr r7, [pc, #-3512] ; 0x14
005BB9B4  F85C 7007		ldr r7, [r12, +r7]
005BB9B8  42B8     		cmp r0, r7
005BB9BA  BF28 2000		hsmov r0, #0
005BB9BE  BF38 2001		lomov r0, #1

005BB9C2  2800     		cmp r0, #0
005BB9C4  D002     		beq #4 ; 0x005BB9CC


005BB9C8  E04B     		b #150 ; 0x005BBA62


005BB9CC  F85F 7DD0		ldr r7, [pc, #-3536] ; 0x1C
005BB9D0  F856 C007		ldr r12, [r6, +r7]
005BB9D4  F8DC 0000		ldr r0, [r12]

005BB9D8  4600     		mov r0, r0
005BB9DA  F8DF 4094		ldr r4, [pc, #+148] ; 0x490E75
005BB9DE  F044 0401		orr r4, r4, #1
005BB9E2  47A0     		blx r4

005BB9E4  6030     		str r0, [r6]

005BB9E6  2000     		mov r0, #0 ; 0
005BB9E8  F85F 7DE8		ldr r7, [pc, #-3560] ; 0x20
005BB9EC  F856 C007		ldr r12, [r6, +r7]
005BB9F0  F85F 7E20		ldr r7, [pc, #-3616] ; 0x2
005BB9F4  F80C 0007		strb r0, [r12, +r7]

005BB9F8  2001     		mov r0, #1 ; 1
005BB9FA  F85F 7DF8		ldr r7, [pc, #-3576] ; 0x20
005BB9FE  F856 C007		ldr r12, [r6, +r7]
005BBA02  F85F 7E2C		ldr r7, [pc, #-3628] ; 0x3
005BBA06  F80C 0007		strb r0, [r12, +r7]

005BBA0A  2001     		mov r0, #1 ; 1
005BBA0C  F85F 7E34		ldr r7, [pc, #-3636] ; 0x4
005BBA10  F856 C007		ldr r12, [r6, +r7]
005BBA14  F85F 7E40		ldr r7, [pc, #-3648] ; 0x3
005BBA18  F80C 0007		strb r0, [r12, +r7]

005BBA1C  2000     		mov r0, #0 ; 0
005BBA1E  F85F 7E44		ldr r7, [pc, #-3652] ; 0x4
005BBA22  F856 C007		ldr r12, [r6, +r7]
005BBA26  F85F 7E54		ldr r7, [pc, #-3668] ; 0x2
005BBA2A  F80C 0007		strb r0, [r12, +r7]

005BBA2E  2000     		mov r0, #0 ; 0
005BBA30  F85F 7E30		ldr r7, [pc, #-3632] ; 0x20
005BBA34  F856 C007		ldr r12, [r6, +r7]
005BBA38  F85F 7E60		ldr r7, [pc, #-3680] ; 0x4
005BBA3C  F80C 0007		strb r0, [r12, +r7]

005BBA40  E00D     		b #26 ; 0x005BBA5E


005BBA44  F8DF 7034		ldr r7, [pc, #+52] ; 0x5BA1EC
005BBA48  6838     		ldr r0, [r7]
005BBA4A  F85F 7E48		ldr r7, [pc, #-3656] ; 0x20
005BBA4E  F856 C007		ldr r12, [r6, +r7]
005BBA52  F85F 7E54		ldr r7, [pc, #-3668] ; 0x1C
005BBA56  F84C 0007		str r0, [r12, +r7]

005BBA5A  E002     		b #4 ; 0x005BBA62


005BBA5E  F7FF B88D		b #-3814 ; 0x005BAB7C

005BBA62  E8BD 4040		ldmia sp!, { r6, lr }

005BBA66  4770     		bx lr

005BBA68  00000042		; 0x00000042
005BBA6C  00490C01		; 0x00490C01
005BBA70  00490E75		; 0x00490E75
005BBA74  005BA1A8		; 0x005BA1A8
005BBA78  005BA1E8		; 0x005BA1E8
005BBA7C  005BA1EC		; 0x005BA1EC


Frame allocation:

	0000       : VAR i
	0004       : STRU PDEDefs
	0008       : VAR Ptr
	0010       : VAR Connections
	0011 bit  0: VAR SpyOn
	0012       : VAR SBSize
	0014       : VAR SpyBuffer
	0018       : STRU DEDefs
	001C       : VAR Fp
	0020       : STRU PDs
	0024 bit  0: VAR Fault

END_FUNCTION_BLOCK
**************************************************
	List function block: TCPDataExchServer
**************************************************

FUNCTION_BLOCK TCPDataExchServer

	{ DE:"(eLabDataExchLib_A500) TCP data exchange, acts as a server" }

        VAR_INPUT
Enable : BOOL;	{ DE:"FB enable" }
SpyOn : BOOL;	{ DE:"Spy active" }
Port : UINT;	{ DE:"Listening port" }
Connections : USINT;	{ DE:"Accepted connections" }
DEDefs : @TCPDEXCHNODEDEFS;	{ DE:"Data exchange node definitions" }
	END_VAR

        VAR_OUTPUT
Enabled : BOOL;	{ DE:"FB enabled" }
Fault : BOOL;	{ DE:"Execution fault" }
	END_VAR

        VAR_EXTERNAL
	{G:"System_variables"}
SysActTaskID AT %MB0.64 : USINT;	{ DE:"System active task ID" }
	END_VAR

        VAR
i : UDINT;	{ DE:"Auxiliary variable" }
CMFB : _TCPDataExchServer;	{ DE:"Connection management FB" }
TCPServer : SysTCPServer;	{ DE:"TCP server" }
BDs : @_TCPDEXCHDATASTRUCT;	{ DE:"Data struct buffer (Allocata con SysMAlloc)" }
BFp : @UDINT;	{ DE:"File pointer buffer (Allocata con SysMAlloc)" }
NDPtr : @TCPDEXCHNODEDEFS;	{ DE:"Node definitions pointer" }
IDx : USINT;	{ DE:"Node definitions index" }
	END_VAR

END_FUNCTION_BLOCK

005BBA80  E92D 4040		stmdb sp!, { r6, lr }
005BBA84  462E     		mov r6, r5

005BBA86  F8DF 7864		ldr r7, [pc, #+2148] ; 0x7A
005BBA8A  5DF0     		ldrb r0, [r6, +r7]

005BBA8C  2800     		cmp r0, #0
005BBA8E  D00B     		beq #22 ; 0x005BBAA8


005BBA92  2000     		mov r0, #0 ; 0

005BBA94  2300     		mov r3, #0 ; 0
005BBA96  2200     		mov r2, #0 ; 0
005BBA98  2100     		mov r1, #0 ; 0
005BBA9A  4600     		mov r0, r0
005BBA9C  F8DF 4870		ldr r4, [pc, #+2160] ; 0x48FE35
005BBAA0  F044 0401		orr r4, r4, #1
005BBAA4  47A0     		blx r4

005BBAA6  6030     		str r0, [r6]

005BBAA8  2000     		mov r0, #0 ; 0
005BBAAA  F8DF 7854		ldr r7, [pc, #+2132] ; 0x85
005BBAAE  55F0     		strb r0, [r6, +r7]

005BBAB0  E92D 0021		stmdb sp!, { r0, r5 }
005BBAB4  F8DF 77F8		ldr r7, [pc, #+2040] ; 0x48
005BBAB8  19F0     		add r0, r6, r7
005BBABA  F8DF 4850		ldr r4, [pc, #+2128] ; 0x48ECF1
005BBABE  F044 0401		orr r4, r4, #1
005BBAC2  47A0     		blx r4
005BBAC4  E8BD 0021		ldmia sp!, { r0, r5 }

005BBAC8  F8DF 781C		ldr r7, [pc, #+2076] ; 0x79
005BBACC  5DF0     		ldrb r0, [r6, +r7]

005BBACE  2800     		cmp r0, #0
005BBAD0  BF08 2001		eqmov r0, #1
005BBAD4  BF18 2000		nemov r0, #0

005BBAD8  2800     		cmp r0, #0
005BBADA  F000 80E1		beq #450 ; 0x005BBCA0


005BBADE  F8DF 781C		ldr r7, [pc, #+2076] ; 0x84
005BBAE2  5DF0     		ldrb r0, [r6, +r7]

005BBAE4  2800     		cmp r0, #0
005BBAE6  F000 80D9		beq #434 ; 0x005BBC9C


005BBAEA  2000     		mov r0, #0 ; 0
005BBAEC  F8DF 780C		ldr r7, [pc, #+2060] ; 0x84
005BBAF0  55F0     		strb r0, [r6, +r7]

005BBAF2  2000     		mov r0, #0 ; 0
005BBAF4  F8DF 77BC		ldr r7, [pc, #+1980] ; 0x50
005BBAF8  55F0     		strb r0, [r6, +r7]

005BBAFA  2000     		mov r0, #0 ; 0

005BBAFC  F8DF 77E4		ldr r7, [pc, #+2020] ; 0x78
005BBB00  55F0     		strb r0, [r6, +r7]

005BBB02  F8DF 77E0		ldr r7, [pc, #+2016] ; 0x78
005BBB06  5DF0     		ldrb r0, [r6, +r7]

005BBB08  B082     		sub sp, sp, #8
005BBB0A  F8CD 0000		str r0, [sp]
005BBB0E  F8DF 7784		ldr r7, [pc, #+1924] ; 0x14
005BBB12  5DF0     		ldrb r0, [r6, +r7]

005BBB14  1E40     		sub r0, r0, #1

005BBB16  4607     		mov r7, r0
005BBB18  F8DD 0000		ldr r0, [sp]
005BBB1C  B002     		add sp, sp, #8
005BBB1E  42B8     		cmp r0, r7
005BBB20  BFD8 2000		lemov r0, #0
005BBB24  BFC8 2001		gtmov r0, #1

005BBB28  2800     		cmp r0, #0
005BBB2A  D126     		bne #76 ; 0x005BBB7A


005BBB2E  2000     		mov r0, #0 ; 0

005BBB30  B082     		sub sp, sp, #8
005BBB32  F8CD 0000		str r0, [sp]
005BBB36  F8DF 4814		ldr r4, [pc, #+2068] ; 0x5BA358
005BBB3A  F044 0401		orr r4, r4, #1
005BBB3E  47A0     		blx r4
005BBB40  B002     		add sp, sp, #8

005BBB42  F8DF 77A0		ldr r7, [pc, #+1952] ; 0x78
005BBB46  5DF7     		ldrb r7, [r6, +r7]
005BBB48  4378     		mul r0, r0, r7

005BBB4A  F8DF 77AC		ldr r7, [pc, #+1964] ; 0x80
005BBB4E  59F7     		ldr r7, [r6, +r7]
005BBB50  19C0     		add r0, r0, r7

005BBB52  F8DF 778C		ldr r7, [pc, #+1932] ; 0x74
005BBB56  51F0     		str r0, [r6, +r7]

005BBB58  2000     		mov r0, #0 ; 0
005BBB5A  F8DF 7784		ldr r7, [pc, #+1924] ; 0x74
005BBB5E  F856 C007		ldr r12, [r6, +r7]
005BBB62  F8DF 7720		ldr r7, [pc, #+1824] ; 0x3
005BBB66  F80C 0007		strb r0, [r12, +r7]

005BBB6A  F8DF 7778		ldr r7, [pc, #+1912] ; 0x78
005BBB6E  5DF0     		ldrb r0, [r6, +r7]

005BBB70  1C40     		add r0, r0, #1

005BBB72  F8DF 7770		ldr r7, [pc, #+1904] ; 0x78
005BBB76  55F0     		strb r0, [r6, +r7]

005BBB78  E7C3     		b #-122 ; 0x005BBB02

005BBB7A  F8DF 7724		ldr r7, [pc, #+1828] ; 0x18
005BBB7E  59F0     		ldr r0, [r6, +r7]

005BBB80  2700     		mov r7, #0 ; 0
005BBB82  42B8     		cmp r0, r7
005BBB84  BF08 2000		eqmov r0, #0
005BBB88  BF18 2001		nemov r0, #1

005BBB8C  2800     		cmp r0, #0
005BBB8E  D00F     		beq #30 ; 0x005BBBB0


005BBB92  2000     		mov r0, #0 ; 0
005BBB94  F8DF 7700		ldr r7, [pc, #+1792] ; 0x15
005BBB98  55F0     		strb r0, [r6, +r7]

005BBB9A  4630     		mov r0, r6
005BBB9C  F8DF 7700		ldr r7, [pc, #+1792] ; 0x18
005BBBA0  19C0     		add r0, r0, r7

005BBBA2  4600     		mov r0, r0
005BBBA4  F8DF 4778		ldr r4, [pc, #+1912] ; 0x4905F5
005BBBA8  F044 0401		orr r4, r4, #1
005BBBAC  47A0     		blx r4

005BBBAE  6030     		str r0, [r6]

005BBBB0  2000     		mov r0, #0 ; 0

005BBBB2  F8DF 7730		ldr r7, [pc, #+1840] ; 0x78
005BBBB6  55F0     		strb r0, [r6, +r7]

005BBBB8  F8DF 7728		ldr r7, [pc, #+1832] ; 0x78
005BBBBC  5DF0     		ldrb r0, [r6, +r7]

005BBBBE  B082     		sub sp, sp, #8
005BBBC0  F8CD 0000		str r0, [sp]
005BBBC4  F8DF 76CC		ldr r7, [pc, #+1740] ; 0x14
005BBBC8  5DF0     		ldrb r0, [r6, +r7]

005BBBCA  1E40     		sub r0, r0, #1

005BBBCC  4607     		mov r7, r0
005BBBCE  F8DD 0000		ldr r0, [sp]
005BBBD2  B002     		add sp, sp, #8
005BBBD4  42B8     		cmp r0, r7
005BBBD6  BFD8 2000		lemov r0, #0
005BBBDA  BFC8 2001		gtmov r0, #1

005BBBDE  2800     		cmp r0, #0
005BBBE0  D13D     		bne #122 ; 0x005BBC5E


005BBBE4  2001     		mov r0, #1 ; 1

005BBBE6  B082     		sub sp, sp, #8
005BBBE8  F8CD 0000		str r0, [sp]
005BBBEC  F8DF 475C		ldr r4, [pc, #+1884] ; 0x5BA358
005BBBF0  F044 0401		orr r4, r4, #1
005BBBF4  47A0     		blx r4
005BBBF6  B002     		add sp, sp, #8

005BBBF8  F8DF 76E8		ldr r7, [pc, #+1768] ; 0x78
005BBBFC  5DF7     		ldrb r7, [r6, +r7]
005BBBFE  4378     		mul r0, r0, r7

005BBC00  F8DF 76D4		ldr r7, [pc, #+1748] ; 0x6C
005BBC04  59F7     		ldr r7, [r6, +r7]
005BBC06  19C0     		add r0, r0, r7

005BBC08  F8DF 76A0		ldr r7, [pc, #+1696] ; 0x24
005BBC0C  51F0     		str r0, [r6, +r7]

005BBC0E  F8DF 769C		ldr r7, [pc, #+1692] ; 0x24
005BBC12  F856 C007		ldr r12, [r6, +r7]
005BBC16  F8DF 7690		ldr r7, [pc, #+1680] ; 0x20
005BBC1A  F85C 0007		ldr r0, [r12, +r7]

005BBC1E  2700     		mov r7, #0 ; 0
005BBC20  42B8     		cmp r0, r7
005BBC22  BF08 2000		eqmov r0, #0
005BBC26  BF18 2001		nemov r0, #1

005BBC2A  2800     		cmp r0, #0
005BBC2C  D00F     		beq #30 ; 0x005BBC4E


005BBC30  F8DF 7678		ldr r7, [pc, #+1656] ; 0x24
005BBC34  F856 C007		ldr r12, [r6, +r7]
005BBC38  4660     		mov r0, r12
005BBC3A  F8DF 766C		ldr r7, [pc, #+1644] ; 0x20
005BBC3E  19C0     		add r0, r0, r7

005BBC40  4600     		mov r0, r0
005BBC42  F8DF 46DC		ldr r4, [pc, #+1756] ; 0x4905F5
005BBC46  F044 0401		orr r4, r4, #1
005BBC4A  47A0     		blx r4

005BBC4C  6030     		str r0, [r6]

005BBC4E  F8DF 7694		ldr r7, [pc, #+1684] ; 0x78
005BBC52  5DF0     		ldrb r0, [r6, +r7]

005BBC54  1C40     		add r0, r0, #1

005BBC56  F8DF 768C		ldr r7, [pc, #+1676] ; 0x78
005BBC5A  55F0     		strb r0, [r6, +r7]

005BBC5C  E7AC     		b #-168 ; 0x005BBBB8

005BBC5E  2001     		mov r0, #1 ; 1

005BBC60  B082     		sub sp, sp, #8
005BBC62  F8CD 0000		str r0, [sp]
005BBC66  F8DF 46E4		ldr r4, [pc, #+1764] ; 0x5BA358
005BBC6A  F044 0401		orr r4, r4, #1
005BBC6E  47A0     		blx r4
005BBC70  B002     		add sp, sp, #8

005BBC72  F8DF 7620		ldr r7, [pc, #+1568] ; 0x14
005BBC76  5DF7     		ldrb r7, [r6, +r7]
005BBC78  4378     		mul r0, r0, r7

005BBC7A  F8DF 7688		ldr r7, [pc, #+1672] ; 0x88
005BBC7E  51F0     		str r0, [r6, +r7]

005BBC80  F8DF 7654		ldr r7, [pc, #+1620] ; 0x6C
005BBC84  59F0     		ldr r0, [r6, +r7]

005BBC86  F8DF 767C		ldr r7, [pc, #+1660] ; 0x88
005BBC8A  59F2     		ldr r2, [r6, +r7]
005BBC8C  2100     		mov r1, #0 ; 0
005BBC8E  4600     		mov r0, r0
005BBC90  F8DF 4690		ldr r4, [pc, #+1680] ; 0x490795
005BBC94  F044 0401		orr r4, r4, #1
005BBC98  47A0     		blx r4

005BBC9A  6030     		str r0, [r6]

005BBC9C  E38F     		b #1822 ; 0x005BC3BE


005BBCA0  F8DF 7658		ldr r7, [pc, #+1624] ; 0x84
005BBCA4  5DF0     		ldrb r0, [r6, +r7]

005BBCA6  2800     		cmp r0, #0
005BBCA8  BF08 2001		eqmov r0, #1
005BBCAC  BF18 2000		nemov r0, #0

005BBCB0  2800     		cmp r0, #0
005BBCB2  F000 822D		beq #1114 ; 0x005BC110


005BBCB6  F8DF 7698		ldr r7, [pc, #+1688] ; 0x20412E8C
005BBCBA  7838     		ldrb r0, [r7]

005BBCBC  2801     		cmp r0, #1
005BBCBE  BF08 2000		eqmov r0, #0
005BBCC2  BF18 2001		nemov r0, #1

005BBCC6  2800     		cmp r0, #0
005BBCC8  D010     		beq #32 ; 0x005BBCEC


005BBCCC  2001     		mov r0, #1 ; 1
005BBCCE  F8DF 7630		ldr r7, [pc, #+1584] ; 0x85
005BBCD2  55F0     		strb r0, [r6, +r7]

005BBCD4  F8DF 7654		ldr r7, [pc, #+1620] ; 0x5BA30C
005BBCD8  6838     		ldr r0, [r7]

005BBCDA  4600     		mov r0, r0
005BBCDC  F8DF 4638		ldr r4, [pc, #+1592] ; 0x490561
005BBCE0  F044 0401		orr r4, r4, #1
005BBCE4  47A0     		blx r4

005BBCE6  6030     		str r0, [r6]

005BBCE8  E369     		b #1746 ; 0x005BC3BE


005BBCEC  F8DF 7608		ldr r7, [pc, #+1544] ; 0x80
005BBCF0  59F0     		ldr r0, [r6, +r7]

005BBCF2  2700     		mov r7, #0 ; 0
005BBCF4  42B8     		cmp r0, r7
005BBCF6  BF18 2000		nemov r0, #0
005BBCFA  BF08 2001		eqmov r0, #1

005BBCFE  2800     		cmp r0, #0
005BBD00  D010     		beq #32 ; 0x005BBD24


005BBD04  2001     		mov r0, #1 ; 1
005BBD06  F8DF 75F8		ldr r7, [pc, #+1528] ; 0x85
005BBD0A  55F0     		strb r0, [r6, +r7]

005BBD0C  F8DF 7620		ldr r7, [pc, #+1568] ; 0x5BA310
005BBD10  6838     		ldr r0, [r7]

005BBD12  4600     		mov r0, r0
005BBD14  F8DF 4600		ldr r4, [pc, #+1536] ; 0x490561
005BBD18  F044 0401		orr r4, r4, #1
005BBD1C  47A0     		blx r4

005BBD1E  6030     		str r0, [r6]

005BBD20  E34D     		b #1690 ; 0x005BC3BE


005BBD24  F8DF 75CC		ldr r7, [pc, #+1484] ; 0x7E
005BBD28  5DF0     		ldrb r0, [r6, +r7]

005BBD2A  2800     		cmp r0, #0
005BBD2C  BF18 2000		nemov r0, #0
005BBD30  BF08 2001		eqmov r0, #1

005BBD34  2800     		cmp r0, #0
005BBD36  D010     		beq #32 ; 0x005BBD5A


005BBD3A  2001     		mov r0, #1 ; 1
005BBD3C  F8DF 75C0		ldr r7, [pc, #+1472] ; 0x85
005BBD40  55F0     		strb r0, [r6, +r7]

005BBD42  F8DF 75F0		ldr r7, [pc, #+1520] ; 0x5BA314
005BBD46  6838     		ldr r0, [r7]

005BBD48  4600     		mov r0, r0
005BBD4A  F8DF 45CC		ldr r4, [pc, #+1484] ; 0x490561
005BBD4E  F044 0401		orr r4, r4, #1
005BBD52  47A0     		blx r4

005BBD54  6030     		str r0, [r6]

005BBD56  E332     		b #1636 ; 0x005BC3BE


005BBD5A  F8DF 7538		ldr r7, [pc, #+1336] ; 0x14
005BBD5E  5DF0     		ldrb r0, [r6, +r7]

005BBD60  2800     		cmp r0, #0
005BBD62  BF18 2000		nemov r0, #0
005BBD66  BF08 2001		eqmov r0, #1

005BBD6A  2800     		cmp r0, #0
005BBD6C  D006     		beq #12 ; 0x005BBD7C


005BBD70  F8DF 7580		ldr r7, [pc, #+1408] ; 0x7E
005BBD74  5DF0     		ldrb r0, [r6, +r7]
005BBD76  F8DF 751C		ldr r7, [pc, #+1308] ; 0x14
005BBD7A  55F0     		strb r0, [r6, +r7]

005BBD7C  F8DF 7574		ldr r7, [pc, #+1396] ; 0x7E
005BBD80  5DF0     		ldrb r0, [r6, +r7]

005BBD82  F8DF 7510		ldr r7, [pc, #+1296] ; 0x14
005BBD86  5DF7     		ldrb r7, [r6, +r7]
005BBD88  42B8     		cmp r0, r7
005BBD8A  BF08 2000		eqmov r0, #0
005BBD8E  BF18 2001		nemov r0, #1

005BBD92  2800     		cmp r0, #0
005BBD94  D010     		beq #32 ; 0x005BBDB8


005BBD98  2001     		mov r0, #1 ; 1
005BBD9A  F8DF 7564		ldr r7, [pc, #+1380] ; 0x85
005BBD9E  55F0     		strb r0, [r6, +r7]

005BBDA0  F8DF 7594		ldr r7, [pc, #+1428] ; 0x5BA318
005BBDA4  6838     		ldr r0, [r7]

005BBDA6  4600     		mov r0, r0
005BBDA8  F8DF 456C		ldr r4, [pc, #+1388] ; 0x490561
005BBDAC  F044 0401		orr r4, r4, #1
005BBDB0  47A0     		blx r4

005BBDB2  6030     		str r0, [r6]

005BBDB4  E303     		b #1542 ; 0x005BC3BE


005BBDB8  F8DF 7520		ldr r7, [pc, #+1312] ; 0x70
005BBDBC  59F0     		ldr r0, [r6, +r7]

005BBDBE  2700     		mov r7, #0 ; 0
005BBDC0  42B8     		cmp r0, r7
005BBDC2  BF18 2000		nemov r0, #0
005BBDC6  BF08 2001		eqmov r0, #1

005BBDCA  2800     		cmp r0, #0
005BBDCC  D040     		beq #128 ; 0x005BBE50


005BBDD0  2004     		mov r0, #4 ; 4

005BBDD2  F8DF 74C0		ldr r7, [pc, #+1216] ; 0x14
005BBDD6  5DF7     		ldrb r7, [r6, +r7]
005BBDD8  4378     		mul r0, r0, r7

005BBDDA  4600     		mov r0, r0
005BBDDC  F8DF 4534		ldr r4, [pc, #+1332] ; 0x4904C5
005BBDE0  F044 0401		orr r4, r4, #1
005BBDE4  47A0     		blx r4

005BBDE6  F8DF 74F4		ldr r7, [pc, #+1268] ; 0x70
005BBDEA  51F0     		str r0, [r6, +r7]

005BBDEC  F8DF 74EC		ldr r7, [pc, #+1260] ; 0x70
005BBDF0  59F0     		ldr r0, [r6, +r7]

005BBDF2  2700     		mov r7, #0 ; 0
005BBDF4  42B8     		cmp r0, r7
005BBDF6  BF18 2000		nemov r0, #0
005BBDFA  BF08 2001		eqmov r0, #1

005BBDFE  2800     		cmp r0, #0
005BBE00  D010     		beq #32 ; 0x005BBE24


005BBE04  F8DF 7534		ldr r7, [pc, #+1332] ; 0x5BA31C
005BBE08  6838     		ldr r0, [r7]

005BBE0A  4600     		mov r0, r0
005BBE0C  F8DF 4508		ldr r4, [pc, #+1288] ; 0x490561
005BBE10  F044 0401		orr r4, r4, #1
005BBE14  47A0     		blx r4

005BBE16  6030     		str r0, [r6]

005BBE18  2001     		mov r0, #1 ; 1
005BBE1A  F8DF 74E4		ldr r7, [pc, #+1252] ; 0x85
005BBE1E  55F0     		strb r0, [r6, +r7]

005BBE20  E2CD     		b #1434 ; 0x005BC3BE


005BBE24  2004     		mov r0, #4 ; 4

005BBE26  F8DF 746C		ldr r7, [pc, #+1132] ; 0x14
005BBE2A  5DF7     		ldrb r7, [r6, +r7]
005BBE2C  4378     		mul r0, r0, r7

005BBE2E  F8DF 74D4		ldr r7, [pc, #+1236] ; 0x88
005BBE32  51F0     		str r0, [r6, +r7]

005BBE34  F8DF 74A4		ldr r7, [pc, #+1188] ; 0x70
005BBE38  59F0     		ldr r0, [r6, +r7]

005BBE3A  F8DF 74C8		ldr r7, [pc, #+1224] ; 0x88
005BBE3E  59F2     		ldr r2, [r6, +r7]
005BBE40  2100     		mov r1, #0 ; 0
005BBE42  4600     		mov r0, r0
005BBE44  F8DF 44DC		ldr r4, [pc, #+1244] ; 0x490795
005BBE48  F044 0401		orr r4, r4, #1
005BBE4C  47A0     		blx r4

005BBE4E  6030     		str r0, [r6]

005BBE50  F8DF 7484		ldr r7, [pc, #+1156] ; 0x6C
005BBE54  59F0     		ldr r0, [r6, +r7]

005BBE56  2700     		mov r7, #0 ; 0
005BBE58  42B8     		cmp r0, r7
005BBE5A  BF18 2000		nemov r0, #0
005BBE5E  BF08 2001		eqmov r0, #1

005BBE62  2800     		cmp r0, #0
005BBE64  D052     		beq #164 ; 0x005BBF0C


005BBE68  2001     		mov r0, #1 ; 1

005BBE6A  B082     		sub sp, sp, #8
005BBE6C  F8CD 0000		str r0, [sp]
005BBE70  F8DF 44D8		ldr r4, [pc, #+1240] ; 0x5BA358
005BBE74  F044 0401		orr r4, r4, #1
005BBE78  47A0     		blx r4
005BBE7A  B002     		add sp, sp, #8

005BBE7C  F8DF 7414		ldr r7, [pc, #+1044] ; 0x14
005BBE80  5DF7     		ldrb r7, [r6, +r7]
005BBE82  4378     		mul r0, r0, r7

005BBE84  4600     		mov r0, r0
005BBE86  F8DF 448C		ldr r4, [pc, #+1164] ; 0x4904C5
005BBE8A  F044 0401		orr r4, r4, #1
005BBE8E  47A0     		blx r4

005BBE90  F8DF 7444		ldr r7, [pc, #+1092] ; 0x6C
005BBE94  51F0     		str r0, [r6, +r7]

005BBE96  F8DF 7440		ldr r7, [pc, #+1088] ; 0x6C
005BBE9A  59F0     		ldr r0, [r6, +r7]

005BBE9C  2700     		mov r7, #0 ; 0
005BBE9E  42B8     		cmp r0, r7
005BBEA0  BF18 2000		nemov r0, #0
005BBEA4  BF08 2001		eqmov r0, #1

005BBEA8  2800     		cmp r0, #0
005BBEAA  D010     		beq #32 ; 0x005BBECE


005BBEAE  F8DF 7490		ldr r7, [pc, #+1168] ; 0x5BA320
005BBEB2  6838     		ldr r0, [r7]

005BBEB4  4600     		mov r0, r0
005BBEB6  F8DF 4460		ldr r4, [pc, #+1120] ; 0x490561
005BBEBA  F044 0401		orr r4, r4, #1
005BBEBE  47A0     		blx r4

005BBEC0  6030     		str r0, [r6]

005BBEC2  2001     		mov r0, #1 ; 1
005BBEC4  F8DF 7438		ldr r7, [pc, #+1080] ; 0x85
005BBEC8  55F0     		strb r0, [r6, +r7]

005BBECA  E278     		b #1264 ; 0x005BC3BE


005BBECE  2001     		mov r0, #1 ; 1

005BBED0  B082     		sub sp, sp, #8
005BBED2  F8CD 0000		str r0, [sp]
005BBED6  F8DF 4474		ldr r4, [pc, #+1140] ; 0x5BA358
005BBEDA  F044 0401		orr r4, r4, #1
005BBEDE  47A0     		blx r4
005BBEE0  B002     		add sp, sp, #8

005BBEE2  F8DF 73B0		ldr r7, [pc, #+944] ; 0x14
005BBEE6  5DF7     		ldrb r7, [r6, +r7]
005BBEE8  4378     		mul r0, r0, r7

005BBEEA  F8DF 7418		ldr r7, [pc, #+1048] ; 0x88
005BBEEE  51F0     		str r0, [r6, +r7]

005BBEF0  F8DF 73E4		ldr r7, [pc, #+996] ; 0x6C
005BBEF4  59F0     		ldr r0, [r6, +r7]

005BBEF6  F8DF 740C		ldr r7, [pc, #+1036] ; 0x88
005BBEFA  59F2     		ldr r2, [r6, +r7]
005BBEFC  2100     		mov r1, #0 ; 0
005BBEFE  4600     		mov r0, r0
005BBF00  F8DF 4420		ldr r4, [pc, #+1056] ; 0x490795
005BBF04  F044 0401		orr r4, r4, #1
005BBF08  47A0     		blx r4

005BBF0A  6030     		str r0, [r6]

005BBF0C  2000     		mov r0, #0 ; 0
005BBF0E  F8DF 73C0		ldr r7, [pc, #+960] ; 0x64
005BBF12  53F0     		strh r0, [r6, +r7]

005BBF14  2000     		mov r0, #0 ; 0
005BBF16  F8DF 73BC		ldr r7, [pc, #+956] ; 0x66
005BBF1A  53F0     		strh r0, [r6, +r7]

005BBF1C  2000     		mov r0, #0 ; 0

005BBF1E  6030     		str r0, [r6]

005BBF20  6830     		ldr r0, [r6]

005BBF22  B082     		sub sp, sp, #8
005BBF24  F8CD 0000		str r0, [sp]
005BBF28  F8DF 7368		ldr r7, [pc, #+872] ; 0x14
005BBF2C  5DF0     		ldrb r0, [r6, +r7]

005BBF2E  1E40     		sub r0, r0, #1

005BBF30  4607     		mov r7, r0
005BBF32  F8DD 0000		ldr r0, [sp]
005BBF36  B002     		add sp, sp, #8
005BBF38  42B8     		cmp r0, r7
005BBF3A  BF98 2000		lsmov r0, #0
005BBF3E  BF88 2001		himov r0, #1

005BBF42  2800     		cmp r0, #0
005BBF44  D173     		bne #230 ; 0x005BC02E


005BBF48  2000     		mov r0, #0 ; 0

005BBF4A  B082     		sub sp, sp, #8
005BBF4C  F8CD 0000		str r0, [sp]
005BBF50  F8DF 43F8		ldr r4, [pc, #+1016] ; 0x5BA358
005BBF54  F044 0401		orr r4, r4, #1
005BBF58  47A0     		blx r4
005BBF5A  B002     		add sp, sp, #8

005BBF5C  6837     		ldr r7, [r6]
005BBF5E  4378     		mul r0, r0, r7

005BBF60  F8DF 7394		ldr r7, [pc, #+916] ; 0x80
005BBF64  59F7     		ldr r7, [r6, +r7]
005BBF66  19C0     		add r0, r0, r7

005BBF68  F8DF 7374		ldr r7, [pc, #+884] ; 0x74
005BBF6C  51F0     		str r0, [r6, +r7]

005BBF6E  F8DF 7370		ldr r7, [pc, #+880] ; 0x74
005BBF72  F856 C007		ldr r12, [r6, +r7]
005BBF76  F8DF 7314		ldr r7, [pc, #+788] ; 0x5
005BBF7A  F81C 0007		ldrb r0, [r12, +r7]

005BBF7E  2800     		cmp r0, #0
005BBF80  BF18 2000		nemov r0, #0
005BBF84  BF08 2001		eqmov r0, #1

005BBF88  2800     		cmp r0, #0
005BBF8A  D010     		beq #32 ; 0x005BBFAE


005BBF8E  F8DF 73B4		ldr r7, [pc, #+948] ; 0x5BA324
005BBF92  6838     		ldr r0, [r7]

005BBF94  4600     		mov r0, r0
005BBF96  F8DF 4380		ldr r4, [pc, #+896] ; 0x490561
005BBF9A  F044 0401		orr r4, r4, #1
005BBF9E  47A0     		blx r4

005BBFA0  6030     		str r0, [r6]

005BBFA2  2001     		mov r0, #1 ; 1
005BBFA4  F8DF 7358		ldr r7, [pc, #+856] ; 0x85
005BBFA8  55F0     		strb r0, [r6, +r7]

005BBFAA  E208     		b #1040 ; 0x005BC3BE


005BBFAE  F8DF 7330		ldr r7, [pc, #+816] ; 0x74
005BBFB2  F856 C007		ldr r12, [r6, +r7]
005BBFB6  F8DF 72D8		ldr r7, [pc, #+728] ; 0xC
005BBFBA  F85C 0007		ldr r0, [r12, +r7]

005BBFBE  F8DF 7310		ldr r7, [pc, #+784] ; 0x64
005BBFC2  5BF7     		ldrh r7, [r6, +r7]
005BBFC4  42B8     		cmp r0, r7
005BBFC6  BF98 2000		lsmov r0, #0
005BBFCA  BF88 2001		himov r0, #1

005BBFCE  2800     		cmp r0, #0
005BBFD0  D00B     		beq #22 ; 0x005BBFEA


005BBFD4  F8DF 7308		ldr r7, [pc, #+776] ; 0x74
005BBFD8  F856 C007		ldr r12, [r6, +r7]
005BBFDC  F8DF 72B0		ldr r7, [pc, #+688] ; 0xC
005BBFE0  F85C 0007		ldr r0, [r12, +r7]

005BBFE4  F8DF 72E8		ldr r7, [pc, #+744] ; 0x64
005BBFE8  53F0     		strh r0, [r6, +r7]

005BBFEA  F8DF 72F4		ldr r7, [pc, #+756] ; 0x74
005BBFEE  F856 C007		ldr r12, [r6, +r7]
005BBFF2  F8DF 72A0		ldr r7, [pc, #+672] ; 0x14
005BBFF6  F85C 0007		ldr r0, [r12, +r7]

005BBFFA  F8DF 72D8		ldr r7, [pc, #+728] ; 0x66
005BBFFE  5BF7     		ldrh r7, [r6, +r7]
005BC000  42B8     		cmp r0, r7
005BC002  BF98 2000		lsmov r0, #0
005BC006  BF88 2001		himov r0, #1

005BC00A  2800     		cmp r0, #0
005BC00C  D00B     		beq #22 ; 0x005BC026


005BC010  F8DF 72CC		ldr r7, [pc, #+716] ; 0x74
005BC014  F856 C007		ldr r12, [r6, +r7]
005BC018  F8DF 7278		ldr r7, [pc, #+632] ; 0x14
005BC01C  F85C 0007		ldr r0, [r12, +r7]

005BC020  F8DF 72B0		ldr r7, [pc, #+688] ; 0x66
005BC024  53F0     		strh r0, [r6, +r7]

005BC026  6830     		ldr r0, [r6]

005BC028  1C40     		add r0, r0, #1

005BC02A  6030     		str r0, [r6]

005BC02C  E778     		b #-272 ; 0x005BBF20

005BC02E  2002     		mov r0, #2 ; 2

005BC030  B082     		sub sp, sp, #8
005BC032  F8CD 0000		str r0, [sp]
005BC036  F8DF 4314		ldr r4, [pc, #+788] ; 0x5BA358
005BC03A  F044 0401		orr r4, r4, #1
005BC03E  47A0     		blx r4
005BC040  B002     		add sp, sp, #8

005BC042  F8DF 728C		ldr r7, [pc, #+652] ; 0x64
005BC046  5BF7     		ldrh r7, [r6, +r7]
005BC048  19C0     		add r0, r0, r7

005BC04A  F8DF 7284		ldr r7, [pc, #+644] ; 0x64
005BC04E  53F0     		strh r0, [r6, +r7]

005BC050  2002     		mov r0, #2 ; 2

005BC052  B082     		sub sp, sp, #8
005BC054  F8CD 0000		str r0, [sp]
005BC058  F8DF 42F0		ldr r4, [pc, #+752] ; 0x5BA358
005BC05C  F044 0401		orr r4, r4, #1
005BC060  47A0     		blx r4
005BC062  B002     		add sp, sp, #8

005BC064  F8DF 726C		ldr r7, [pc, #+620] ; 0x66
005BC068  5BF7     		ldrh r7, [r6, +r7]
005BC06A  19C0     		add r0, r0, r7

005BC06C  F8DF 7264		ldr r7, [pc, #+612] ; 0x66
005BC070  53F0     		strh r0, [r6, +r7]

005BC072  F8DF 725C		ldr r7, [pc, #+604] ; 0x64
005BC076  5BF0     		ldrh r0, [r6, +r7]

005BC078  F44F 7700		mov r7, #512 ; 512
005BC07C  42B8     		cmp r0, r7
005BC07E  BFD8 2000		lemov r0, #0
005BC082  BFC8 2001		gtmov r0, #1

005BC086  2800     		cmp r0, #0
005BC088  D005     		beq #10 ; 0x005BC096


005BC08C  F44F 7000		mov r0, #512 ; 512
005BC090  F8DF 723C		ldr r7, [pc, #+572] ; 0x64
005BC094  53F0     		strh r0, [r6, +r7]

005BC096  F8DF 723C		ldr r7, [pc, #+572] ; 0x66
005BC09A  5BF0     		ldrh r0, [r6, +r7]

005BC09C  F44F 7700		mov r7, #512 ; 512
005BC0A0  42B8     		cmp r0, r7
005BC0A2  BFD8 2000		lemov r0, #0
005BC0A6  BFC8 2001		gtmov r0, #1

005BC0AA  2800     		cmp r0, #0
005BC0AC  D005     		beq #10 ; 0x005BC0BA


005BC0B0  F44F 7000		mov r0, #512 ; 512
005BC0B4  F8DF 721C		ldr r7, [pc, #+540] ; 0x66
005BC0B8  53F0     		strh r0, [r6, +r7]

005BC0BA  F8DF 026C		ldr r0, [pc, #+620] ; 0x5BA1F8

005BC0BE  F8DF 71FC		ldr r7, [pc, #+508] ; 0x58
005BC0C2  51F0     		str r0, [r6, +r7]

005BC0C4  F8DF 7228		ldr r7, [pc, #+552] ; 0x7C
005BC0C8  5BF0     		ldrh r0, [r6, +r7]
005BC0CA  F8DF 71F4		ldr r7, [pc, #+500] ; 0x5C
005BC0CE  53F0     		strh r0, [r6, +r7]

005BC0D0  F8DF 7208		ldr r7, [pc, #+520] ; 0x70
005BC0D4  59F0     		ldr r0, [r6, +r7]
005BC0D6  F8DF 71E0		ldr r7, [pc, #+480] ; 0x54
005BC0DA  51F0     		str r0, [r6, +r7]

005BC0DC  F8DF 7214		ldr r7, [pc, #+532] ; 0x7E
005BC0E0  5DF0     		ldrb r0, [r6, +r7]
005BC0E2  F8DF 71E0		ldr r7, [pc, #+480] ; 0x5E
005BC0E6  55F0     		strb r0, [r6, +r7]

005BC0E8  200A     		mov r0, #10 ; 10
005BC0EA  F8DF 71DC		ldr r7, [pc, #+476] ; 0x60
005BC0EE  53F0     		strh r0, [r6, +r7]

005BC0F0  F8DF 7254		ldr r7, [pc, #+596] ; 0x5BA328
005BC0F4  8838     		ldrh r0, [r7]
005BC0F6  F8DF 71D4		ldr r7, [pc, #+468] ; 0x62
005BC0FA  53F0     		strh r0, [r6, +r7]

005BC0FC  F8DF 71F8		ldr r7, [pc, #+504] ; 0x80
005BC100  59F0     		ldr r0, [r6, +r7]
005BC102  F8DF 71A0		ldr r7, [pc, #+416] ; 0x1C
005BC106  51F0     		str r0, [r6, +r7]

005BC108  2001     		mov r0, #1 ; 1
005BC10A  F8DF 71F0		ldr r7, [pc, #+496] ; 0x84
005BC10E  55F0     		strb r0, [r6, +r7]

005BC110  F8DF 718C		ldr r7, [pc, #+396] ; 0x18
005BC114  59F0     		ldr r0, [r6, +r7]

005BC116  2700     		mov r7, #0 ; 0
005BC118  42B8     		cmp r0, r7
005BC11A  BF18 2000		nemov r0, #0
005BC11E  BF08 2001		eqmov r0, #1

005BC122  F8DF 71C8		ldr r7, [pc, #+456] ; 0x7A
005BC126  5DF7     		ldrb r7, [r6, +r7]
005BC128  4038     		and r0, r0, r7

005BC12A  2800     		cmp r0, #0
005BC12C  D01E     		beq #60 ; 0x005BC16C


005BC130  2080     		mov r0, #128 ; 128
005BC132  F8DF 7168		ldr r7, [pc, #+360] ; 0x16
005BC136  55F0     		strb r0, [r6, +r7]

005BC138  4630     		mov r0, r6
005BC13A  F8DF 7164		ldr r7, [pc, #+356] ; 0x18
005BC13E  19C0     		add r0, r0, r7

005BC140  F8DF 71C4		ldr r7, [pc, #+452] ; 0x8C
005BC144  51F0     		str r0, [r6, +r7]

005BC146  F8DF 7154		ldr r7, [pc, #+340] ; 0x16
005BC14A  5DF0     		ldrb r0, [r6, +r7]

005BC14C  F8DF 71B8		ldr r7, [pc, #+440] ; 0x8C
005BC150  59F1     		ldr r1, [r6, +r7]
005BC152  4600     		mov r0, r0
005BC154  F8DF 41C4		ldr r4, [pc, #+452] ; 0x4905B1
005BC158  F044 0401		orr r4, r4, #1
005BC15C  47A0     		blx r4

005BC15E  2800     		cmp r0, #0
005BC160  D004     		beq #8 ; 0x005BC16C


005BC164  2001     		mov r0, #1 ; 1
005BC166  F8DF 7130		ldr r7, [pc, #+304] ; 0x15
005BC16A  55F0     		strb r0, [r6, +r7]

005BC16C  F8DF 7130		ldr r7, [pc, #+304] ; 0x18
005BC170  59F0     		ldr r0, [r6, +r7]

005BC172  2700     		mov r7, #0 ; 0
005BC174  42B8     		cmp r0, r7
005BC176  BF08 2000		eqmov r0, #0
005BC17A  BF18 2001		nemov r0, #1

005BC17E  B082     		sub sp, sp, #8
005BC180  F8CD 0000		str r0, [sp]
005BC184  F8DF 7164		ldr r7, [pc, #+356] ; 0x7A
005BC188  5DF0     		ldrb r0, [r6, +r7]

005BC18A  2800     		cmp r0, #0
005BC18C  BF08 2001		eqmov r0, #1
005BC190  BF18 2000		nemov r0, #0

005BC194  4607     		mov r7, r0
005BC196  F8DD 0000		ldr r0, [sp]
005BC19A  B002     		add sp, sp, #8
005BC19C  4038     		and r0, r0, r7

005BC19E  2800     		cmp r0, #0
005BC1A0  D00F     		beq #30 ; 0x005BC1C2


005BC1A4  2000     		mov r0, #0 ; 0
005BC1A6  F8DF 70F0		ldr r7, [pc, #+240] ; 0x15
005BC1AA  55F0     		strb r0, [r6, +r7]

005BC1AC  4630     		mov r0, r6
005BC1AE  F8DF 70F0		ldr r7, [pc, #+240] ; 0x18
005BC1B2  19C0     		add r0, r0, r7

005BC1B4  4600     		mov r0, r0
005BC1B6  F8DF 4168		ldr r4, [pc, #+360] ; 0x4905F5
005BC1BA  F044 0401		orr r4, r4, #1
005BC1BE  47A0     		blx r4

005BC1C0  6030     		str r0, [r6]

005BC1C2  2000     		mov r0, #0 ; 0

005BC1C4  6030     		str r0, [r6]

005BC1C6  6830     		ldr r0, [r6]

005BC1C8  B082     		sub sp, sp, #8
005BC1CA  F8CD 0000		str r0, [sp]
005BC1CE  F8DF 70C4		ldr r7, [pc, #+196] ; 0x14
005BC1D2  5DF0     		ldrb r0, [r6, +r7]

005BC1D4  1E40     		sub r0, r0, #1

005BC1D6  4607     		mov r7, r0
005BC1D8  F8DD 0000		ldr r0, [sp]
005BC1DC  B002     		add sp, sp, #8
005BC1DE  42B8     		cmp r0, r7
005BC1E0  BF98 2000		lsmov r0, #0
005BC1E4  BF88 2001		himov r0, #1

005BC1E8  2800     		cmp r0, #0
005BC1EA  D120     		bne #64 ; 0x005BC22E


005BC1EE  2000     		mov r0, #0 ; 0

005BC1F0  B082     		sub sp, sp, #8
005BC1F2  F8CD 0000		str r0, [sp]
005BC1F6  F8DF 4154		ldr r4, [pc, #+340] ; 0x5BA358
005BC1FA  F044 0401		orr r4, r4, #1
005BC1FE  47A0     		blx r4
005BC200  B002     		add sp, sp, #8

005BC202  6837     		ldr r7, [r6]
005BC204  4378     		mul r0, r0, r7

005BC206  F8DF 70F0		ldr r7, [pc, #+240] ; 0x80
005BC20A  59F7     		ldr r7, [r6, +r7]
005BC20C  19C0     		add r0, r0, r7

005BC20E  F8DF 70D0		ldr r7, [pc, #+208] ; 0x74
005BC212  51F0     		str r0, [r6, +r7]

005BC214  2000     		mov r0, #0 ; 0
005BC216  F8DF 70C8		ldr r7, [pc, #+200] ; 0x74
005BC21A  F856 C007		ldr r12, [r6, +r7]
005BC21E  F8DF 7068		ldr r7, [pc, #+104] ; 0x4
005BC222  F80C 0007		strb r0, [r12, +r7]

005BC226  6830     		ldr r0, [r6]

005BC228  1C40     		add r0, r0, #1

005BC22A  6030     		str r0, [r6]

005BC22C  E7CB     		b #-106 ; 0x005BC1C6

005BC22E  2001     		mov r0, #1 ; 1
005BC230  F8DF 7080		ldr r7, [pc, #+128] ; 0x50
005BC234  55F0     		strb r0, [r6, +r7]

005BC236  2000     		mov r0, #0 ; 0

005BC238  F8DF 70A8		ldr r7, [pc, #+168] ; 0x78
005BC23C  55F0     		strb r0, [r6, +r7]

005BC23E  F8DF 70A4		ldr r7, [pc, #+164] ; 0x78
005BC242  5DF0     		ldrb r0, [r6, +r7]

005BC244  B082     		sub sp, sp, #8
005BC246  F8CD 0000		str r0, [sp]
005BC24A  F8DF 7048		ldr r7, [pc, #+72] ; 0x14
005BC24E  5DF0     		ldrb r0, [r6, +r7]

005BC250  1E40     		sub r0, r0, #1

005BC252  4607     		mov r7, r0
005BC254  F8DD 0000		ldr r0, [sp]
005BC258  B002     		add sp, sp, #8
005BC25A  42B8     		cmp r0, r7
005BC25C  BFD8 2000		lemov r0, #0
005BC260  BFC8 2001		gtmov r0, #1

005BC264  2800     		cmp r0, #0
005BC266  F040 80AA		bne #340 ; 0x005BC3BE


005BC26A  2004     		mov r0, #4 ; 4

005BC26C  F8DF 7074		ldr r7, [pc, #+116] ; 0x78
005BC270  5DF7     		ldrb r7, [r6, +r7]
005BC272  4378     		mul r0, r0, r7

005BC274  F8DF 7064		ldr r7, [pc, #+100] ; 0x70
005BC278  59F7     		ldr r7, [r6, +r7]
005BC27A  19C0     		add r0, r0, r7

005BC27C  F8DF 7028		ldr r7, [pc, #+40] ; 0x20
005BC280  51F0     		str r0, [r6, +r7]

005BC282  E067     		b #206

005BC284  00000003		; 0x00000003
005BC288  00000004		; 0x00000004
005BC28C  00000005		; 0x00000005
005BC290  0000000C		; 0x0000000C
005BC294  00000014		; 0x00000014
005BC298  00000015		; 0x00000015
005BC29C  00000016		; 0x00000016
005BC2A0  00000018		; 0x00000018
005BC2A4  0000001C		; 0x0000001C
005BC2A8  00000020		; 0x00000020
005BC2AC  00000024		; 0x00000024
005BC2B0  00000048		; 0x00000048
005BC2B4  00000050		; 0x00000050
005BC2B8  00000054		; 0x00000054
005BC2BC  00000058		; 0x00000058
005BC2C0  0000005C		; 0x0000005C
005BC2C4  0000005E		; 0x0000005E
005BC2C8  00000060		; 0x00000060
005BC2CC  00000062		; 0x00000062
005BC2D0  00000064		; 0x00000064
005BC2D4  00000066		; 0x00000066
005BC2D8  0000006C		; 0x0000006C
005BC2DC  00000070		; 0x00000070
005BC2E0  00000074		; 0x00000074
005BC2E4  00000078		; 0x00000078
005BC2E8  00000079		; 0x00000079
005BC2EC  0000007A		; 0x0000007A
005BC2F0  0000007C		; 0x0000007C
005BC2F4  0000007E		; 0x0000007E
005BC2F8  00000080		; 0x00000080
005BC2FC  00000084		; 0x00000084
005BC300  00000085		; 0x00000085
005BC304  00000088		; 0x00000088
005BC308  0000008C		; 0x0000008C
005BC30C  0048ECF1		; 0x0048ECF1
005BC310  0048FE35		; 0x0048FE35
005BC314  004904C5		; 0x004904C5
005BC318  00490561		; 0x00490561
005BC31C  004905B1		; 0x004905B1
005BC320  004905F5		; 0x004905F5
005BC324  00490795		; 0x00490795
005BC328  005BA1F8		; 0x005BA1F8
005BC32C  005BA30C		; 0x005BA30C
005BC330  005BA310		; 0x005BA310
005BC334  005BA314		; 0x005BA314
005BC338  005BA318		; 0x005BA318
005BC33C  005BA31C		; 0x005BA31C
005BC340  005BA320		; 0x005BA320
005BC344  005BA324		; 0x005BA324
005BC348  005BA328		; 0x005BA328
005BC34C  005BA358		; 0x005BA358
005BC350  20412E8C		; 0x20412E8C

005BC354  2001     		mov r0, #1 ; 1

005BC356  B082     		sub sp, sp, #8
005BC358  F8CD 0000		str r0, [sp]
005BC35C  F85F 4014		ldr r4, [pc, #-20] ; 0x5BA358
005BC360  F044 0401		orr r4, r4, #1
005BC364  47A0     		blx r4
005BC366  B002     		add sp, sp, #8

005BC368  F85F 7088		ldr r7, [pc, #-136] ; 0x78
005BC36C  5DF7     		ldrb r7, [r6, +r7]
005BC36E  4378     		mul r0, r0, r7

005BC370  F85F 709C		ldr r7, [pc, #-156] ; 0x6C
005BC374  59F7     		ldr r7, [r6, +r7]
005BC376  19C0     		add r0, r0, r7

005BC378  F85F 70D0		ldr r7, [pc, #-208] ; 0x24
005BC37C  51F0     		str r0, [r6, +r7]

005BC37E  E92D 0021		stmdb sp!, { r0, r5 }
005BC382  F85F 70FC		ldr r7, [pc, #-252] ; 0x4
005BC386  19F5     		add r5, r6, r7
005BC388  F8DF 403C		ldr r4, [pc, #+60] ; 0x5BA3CC
005BC38C  F044 0401		orr r4, r4, #1
005BC390  47A0     		blx r4
005BC392  E8BD 0021		ldmia sp!, { r0, r5 }

005BC396  F8DF 702C		ldr r7, [pc, #+44] ; 0x28
005BC39A  5DF0     		ldrb r0, [r6, +r7]

005BC39C  2800     		cmp r0, #0
005BC39E  D006     		beq #12 ; 0x005BC3AE


005BC3A2  2001     		mov r0, #1 ; 1
005BC3A4  F85F 70A8		ldr r7, [pc, #-168] ; 0x85
005BC3A8  55F0     		strb r0, [r6, +r7]

005BC3AA  E008     		b #16 ; 0x005BC3BE


005BC3AE  F85F 70CC		ldr r7, [pc, #-204] ; 0x78
005BC3B2  5DF0     		ldrb r0, [r6, +r7]

005BC3B4  1C40     		add r0, r0, #1

005BC3B6  F85F 70D4		ldr r7, [pc, #-212] ; 0x78
005BC3BA  55F0     		strb r0, [r6, +r7]

005BC3BC  E73F     		b #-386 ; 0x005BC23E

005BC3BE  E8BD 4040		ldmia sp!, { r6, lr }

005BC3C2  4770     		bx lr

005BC3C4  00000028		; 0x00000028
005BC3C8  005BA3CC		; 0x005BA3CC


Frame allocation:

	0000       : VAR i
	0004       : FB CMFB
	0048       : FB TCPServer
	006C       : STRU BDs
	0070       : VAR BFp
	0074       : STRU NDPtr
	0078       : VAR IDx
	0079 bit  0: VAR Enable
	007A bit  0: VAR SpyOn
	007C       : VAR Port
	007E       : VAR Connections
	0080       : STRU DEDefs
	0084 bit  0: VAR Enabled
	0085 bit  0: VAR Fault

END_FUNCTION_BLOCK
**************************************************
	List function block: TCPDataExchClient
**************************************************

FUNCTION_BLOCK TCPDataExchClient

	{ DE:"(eLabDataExchLib_A500) TCP data exchange, acts as a client" }

        VAR_INPUT
Enable : BOOL;	{ DE:"FB enable" }
SpyOn : BOOL;	{ DE:"Spy active" }
SAddress : @USINT;	{ DE:"Server address" }
SPort : UINT;	{ DE:"Server port" }
DEDefs : @TCPDEXCHNODEDEFS;	{ DE:"Data exchange definitions" }
	END_VAR

        VAR_OUTPUT
Enabled : BOOL;	{ DE:"FB enabled" }
Fault : BOOL;	{ DE:"Execution fault" }
	END_VAR

        VAR_EXTERNAL
	{G:"System_variables"}
SysActTaskID AT %MB0.64 : USINT;	{ DE:"System active task ID" }
	END_VAR

        VAR
CaseNr : USINT;	{ DE:"Program cases" }
FHd : _TCPDEXCHFRAMEHEADER;	{ DE:"Frame header (Definito per permettere SIZEOF)" }
ErrorNr : UDINT;	{ DE:"Error number" }
i : UDINT;	{ DE:"Auxiliary variable" }
ISpyOn : BOOL;	{ DE:"Spy active (Internal)" }
SBSize : USINT := 128;	{ DE:"Spy buffer size" }
SpyBuffer : @BYTE;	{ DE:"Spy buffer address (Allocata con SysRMAlloc)" }
TCPClient : SysTCPClient;	{ DE:"TCP client" }
TimeBf : ARRAY[ 0..2 ] OF UDINT;	{ DE:"Time buffer (uS)" }
CBuffer : @BYTE;	{ DE:"Compare buffer (Allocata con SysRMAlloc)" }
TxData : BOOL;	{ DE:"Tx data send" }
Ptr : ARRAY[ 0..1 ] OF @BYTE;	{ DE:"Auxiliary pointer" }
TxLength : UDINT;	{ DE:"Tx buffer length" }
Length : UDINT;	{ DE:"Length calculation" }
TxTCheck : BOOL;	{ DE:"Tx data time check" }
	END_VAR

END_FUNCTION_BLOCK

005BC3CC  E92D 4040		stmdb sp!, { r6, lr }
005BC3D0  462E     		mov r6, r5

005BC3D2  F8DF 7874		ldr r7, [pc, #+2164] ; 0x6A
005BC3D6  5DF0     		ldrb r0, [r6, +r7]

005BC3D8  2800     		cmp r0, #0
005BC3DA  D00D     		beq #26 ; 0x005BC3F8


005BC3DE  2000     		mov r0, #0 ; 0

005BC3E0  2300     		mov r3, #0 ; 0
005BC3E2  2200     		mov r2, #0 ; 0
005BC3E4  2100     		mov r1, #0 ; 0
005BC3E6  4600     		mov r0, r0
005BC3E8  F8DF 488C		ldr r4, [pc, #+2188] ; 0x48FE35
005BC3EC  F044 0401		orr r4, r4, #1
005BC3F0  47A0     		blx r4

005BC3F2  F8DF 77F8		ldr r7, [pc, #+2040] ; 0x10
005BC3F6  51F0     		str r0, [r6, +r7]

005BC3F8  2000     		mov r0, #0 ; 0
005BC3FA  F8DF 7860		ldr r7, [pc, #+2144] ; 0x79
005BC3FE  55F0     		strb r0, [r6, +r7]

005BC400  2000     		mov r0, #0 ; 0
005BC402  F8DF 7850		ldr r7, [pc, #+2128] ; 0x74
005BC406  F856 C007		ldr r12, [r6, +r7]
005BC40A  F8DF 77D0		ldr r7, [pc, #+2000] ; 0x4
005BC40E  F80C 0007		strb r0, [r12, +r7]

005BC412  E92D 0021		stmdb sp!, { r0, r5 }
005BC416  F8DF 77E4		ldr r7, [pc, #+2020] ; 0x1C
005BC41A  19F0     		add r0, r6, r7
005BC41C  F8DF 4850		ldr r4, [pc, #+2128] ; 0x48EB99
005BC420  F044 0401		orr r4, r4, #1
005BC424  47A0     		blx r4
005BC426  E8BD 0021		ldmia sp!, { r0, r5 }

005BC42A  F8DF 7818		ldr r7, [pc, #+2072] ; 0x69
005BC42E  5DF0     		ldrb r0, [r6, +r7]

005BC430  2800     		cmp r0, #0
005BC432  BF08 2001		eqmov r0, #1
005BC436  BF18 2000		nemov r0, #0

005BC43A  2800     		cmp r0, #0
005BC43C  D046     		beq #140 ; 0x005BC4CC


005BC440  F8DF 7814		ldr r7, [pc, #+2068] ; 0x78
005BC444  5DF0     		ldrb r0, [r6, +r7]

005BC446  2800     		cmp r0, #0
005BC448  D03E     		beq #124 ; 0x005BC4C8


005BC44C  2000     		mov r0, #0 ; 0
005BC44E  F8DF 7808		ldr r7, [pc, #+2056] ; 0x78
005BC452  55F0     		strb r0, [r6, +r7]

005BC454  2000     		mov r0, #0 ; 0
005BC456  F8DF 77A8		ldr r7, [pc, #+1960] ; 0x24
005BC45A  55F0     		strb r0, [r6, +r7]

005BC45C  F8DF 77D4		ldr r7, [pc, #+2004] ; 0x50
005BC460  59F0     		ldr r0, [r6, +r7]

005BC462  2700     		mov r7, #0 ; 0
005BC464  42B8     		cmp r0, r7
005BC466  BF08 2000		eqmov r0, #0
005BC46A  BF18 2001		nemov r0, #1

005BC46E  2800     		cmp r0, #0
005BC470  D00D     		beq #26 ; 0x005BC48E


005BC474  4630     		mov r0, r6
005BC476  F8DF 77BC		ldr r7, [pc, #+1980] ; 0x50
005BC47A  19C0     		add r0, r0, r7

005BC47C  4600     		mov r0, r0
005BC47E  F8DF 4808		ldr r4, [pc, #+2056] ; 0x4905F5
005BC482  F044 0401		orr r4, r4, #1
005BC486  47A0     		blx r4

005BC488  F8DF 7760		ldr r7, [pc, #+1888] ; 0x10
005BC48C  51F0     		str r0, [r6, +r7]

005BC48E  F8DF 7768		ldr r7, [pc, #+1896] ; 0x18
005BC492  59F0     		ldr r0, [r6, +r7]

005BC494  2700     		mov r7, #0 ; 0
005BC496  42B8     		cmp r0, r7
005BC498  BF08 2000		eqmov r0, #0
005BC49C  BF18 2001		nemov r0, #1

005BC4A0  2800     		cmp r0, #0
005BC4A2  D011     		beq #34 ; 0x005BC4C8


005BC4A6  2000     		mov r0, #0 ; 0
005BC4A8  F8DF 7744		ldr r7, [pc, #+1860] ; 0x14
005BC4AC  55F0     		strb r0, [r6, +r7]

005BC4AE  4630     		mov r0, r6
005BC4B0  F8DF 7744		ldr r7, [pc, #+1860] ; 0x18
005BC4B4  19C0     		add r0, r0, r7

005BC4B6  4600     		mov r0, r0
005BC4B8  F8DF 47CC		ldr r4, [pc, #+1996] ; 0x4905F5
005BC4BC  F044 0401		orr r4, r4, #1
005BC4C0  47A0     		blx r4

005BC4C2  F8DF 7728		ldr r7, [pc, #+1832] ; 0x10
005BC4C6  51F0     		str r0, [r6, +r7]

005BC4C8  F001 B93B		b #4726 ; 0x005BD742


005BC4CC  F8DF 7788		ldr r7, [pc, #+1928] ; 0x78
005BC4D0  5DF0     		ldrb r0, [r6, +r7]

005BC4D2  2800     		cmp r0, #0
005BC4D4  BF08 2001		eqmov r0, #1
005BC4D8  BF18 2000		nemov r0, #0

005BC4DC  2800     		cmp r0, #0
005BC4DE  F000 80D9		beq #434 ; 0x005BC694


005BC4E2  F8DF 77E8		ldr r7, [pc, #+2024] ; 0x20412E8C
005BC4E6  7838     		ldrb r0, [r7]

005BC4E8  2801     		cmp r0, #1
005BC4EA  BF08 2000		eqmov r0, #0
005BC4EE  BF18 2001		nemov r0, #1

005BC4F2  2800     		cmp r0, #0
005BC4F4  D012     		beq #36 ; 0x005BC51C


005BC4F8  2001     		mov r0, #1 ; 1
005BC4FA  F8DF 7760		ldr r7, [pc, #+1888] ; 0x79
005BC4FE  55F0     		strb r0, [r6, +r7]

005BC500  F8DF 779C		ldr r7, [pc, #+1948] ; 0x5BA1F0
005BC504  6838     		ldr r0, [r7]

005BC506  4600     		mov r0, r0
005BC508  F8DF 4774		ldr r4, [pc, #+1908] ; 0x490561
005BC50C  F044 0401		orr r4, r4, #1
005BC510  47A0     		blx r4

005BC512  F8DF 76D8		ldr r7, [pc, #+1752] ; 0x10
005BC516  51F0     		str r0, [r6, +r7]

005BC518  F001 B913		b #4646 ; 0x005BD742


005BC51C  F8DF 7734		ldr r7, [pc, #+1844] ; 0x74
005BC520  59F0     		ldr r0, [r6, +r7]

005BC522  2700     		mov r7, #0 ; 0
005BC524  42B8     		cmp r0, r7
005BC526  BF18 2000		nemov r0, #0
005BC52A  BF08 2001		eqmov r0, #1

005BC52E  2800     		cmp r0, #0
005BC530  D012     		beq #36 ; 0x005BC558


005BC534  2001     		mov r0, #1 ; 1
005BC536  F8DF 7724		ldr r7, [pc, #+1828] ; 0x79
005BC53A  55F0     		strb r0, [r6, +r7]

005BC53C  F8DF 7764		ldr r7, [pc, #+1892] ; 0x5BA1F4
005BC540  6838     		ldr r0, [r7]

005BC542  4600     		mov r0, r0
005BC544  F8DF 4738		ldr r4, [pc, #+1848] ; 0x490561
005BC548  F044 0401		orr r4, r4, #1
005BC54C  47A0     		blx r4

005BC54E  F8DF 769C		ldr r7, [pc, #+1692] ; 0x10
005BC552  51F0     		str r0, [r6, +r7]

005BC554  F001 B8F5		b #4586 ; 0x005BD742


005BC558  2002     		mov r0, #2 ; 2

005BC55A  B082     		sub sp, sp, #8
005BC55C  F8CD 0000		str r0, [sp]
005BC560  F8DF 4764		ldr r4, [pc, #+1892] ; 0x5BA358
005BC564  F044 0401		orr r4, r4, #1
005BC568  47A0     		blx r4
005BC56A  B002     		add sp, sp, #8

005BC56C  F8DF 76E4		ldr r7, [pc, #+1764] ; 0x74
005BC570  F856 C007		ldr r12, [r6, +r7]
005BC574  F8DF 7670		ldr r7, [pc, #+1648] ; 0xC
005BC578  F85C 7007		ldr r7, [r12, +r7]
005BC57C  19C0     		add r0, r0, r7

005BC57E  F8DF 769C		ldr r7, [pc, #+1692] ; 0x3A
005BC582  53F0     		strh r0, [r6, +r7]

005BC584  2002     		mov r0, #2 ; 2

005BC586  B082     		sub sp, sp, #8
005BC588  F8CD 0000		str r0, [sp]
005BC58C  F8DF 4738		ldr r4, [pc, #+1848] ; 0x5BA358
005BC590  F044 0401		orr r4, r4, #1
005BC594  47A0     		blx r4
005BC596  B002     		add sp, sp, #8

005BC598  F8DF 76B8		ldr r7, [pc, #+1720] ; 0x74
005BC59C  F856 C007		ldr r12, [r6, +r7]
005BC5A0  F8DF 764C		ldr r7, [pc, #+1612] ; 0x14
005BC5A4  F85C 7007		ldr r7, [r12, +r7]
005BC5A8  19C0     		add r0, r0, r7

005BC5AA  F8DF 7674		ldr r7, [pc, #+1652] ; 0x3C
005BC5AE  53F0     		strh r0, [r6, +r7]

005BC5B0  F8DF 7668		ldr r7, [pc, #+1640] ; 0x3A
005BC5B4  5BF0     		ldrh r0, [r6, +r7]

005BC5B6  F44F 7700		mov r7, #512 ; 512
005BC5BA  42B8     		cmp r0, r7
005BC5BC  BFD8 2000		lemov r0, #0
005BC5C0  BFC8 2001		gtmov r0, #1

005BC5C4  2800     		cmp r0, #0
005BC5C6  D005     		beq #10 ; 0x005BC5D4


005BC5CA  F44F 7000		mov r0, #512 ; 512
005BC5CE  F8DF 764C		ldr r7, [pc, #+1612] ; 0x3A
005BC5D2  53F0     		strh r0, [r6, +r7]

005BC5D4  F8DF 7648		ldr r7, [pc, #+1608] ; 0x3C
005BC5D8  5BF0     		ldrh r0, [r6, +r7]

005BC5DA  F44F 7700		mov r7, #512 ; 512
005BC5DE  42B8     		cmp r0, r7
005BC5E0  BFD8 2000		lemov r0, #0
005BC5E4  BFC8 2001		gtmov r0, #1

005BC5E8  2800     		cmp r0, #0
005BC5EA  D005     		beq #10 ; 0x005BC5F8


005BC5EE  F44F 7000		mov r0, #512 ; 512
005BC5F2  F8DF 762C		ldr r7, [pc, #+1580] ; 0x3C
005BC5F6  53F0     		strh r0, [r6, +r7]

005BC5F8  F8DF 7650		ldr r7, [pc, #+1616] ; 0x6C
005BC5FC  59F0     		ldr r0, [r6, +r7]
005BC5FE  F8DF 7604		ldr r7, [pc, #+1540] ; 0x28
005BC602  51F0     		str r0, [r6, +r7]

005BC604  F8DF 7648		ldr r7, [pc, #+1608] ; 0x70
005BC608  5BF0     		ldrh r0, [r6, +r7]
005BC60A  F8DF 75FC		ldr r7, [pc, #+1532] ; 0x2C
005BC60E  53F0     		strh r0, [r6, +r7]

005BC610  F8DF 0694		ldr r0, [pc, #+1684] ; 0x5BA1F8

005BC614  F8DF 75F4		ldr r7, [pc, #+1524] ; 0x30
005BC618  51F0     		str r0, [r6, +r7]

005BC61A  2000     		mov r0, #0 ; 0
005BC61C  F8DF 75F0		ldr r7, [pc, #+1520] ; 0x34
005BC620  53F0     		strh r0, [r6, +r7]

005BC622  200A     		mov r0, #10 ; 10
005BC624  F8DF 75EC		ldr r7, [pc, #+1516] ; 0x36
005BC628  53F0     		strh r0, [r6, +r7]

005BC62A  F8DF 7628		ldr r7, [pc, #+1576] ; 0x74
005BC62E  F856 C007		ldr r12, [r6, +r7]
005BC632  F8DF 75AC		ldr r7, [pc, #+1452] ; 0x5
005BC636  F81C 0007		ldrb r0, [r12, +r7]
005BC63A  F8DF 75DC		ldr r7, [pc, #+1500] ; 0x38
005BC63E  53F0     		strh r0, [r6, +r7]

005BC640  2000     		mov r0, #0 ; 0

005BC642  F8DF 75A8		ldr r7, [pc, #+1448] ; 0x10
005BC646  51F0     		str r0, [r6, +r7]

005BC648  F8DF 75A0		ldr r7, [pc, #+1440] ; 0x10
005BC64C  59F0     		ldr r0, [r6, +r7]

005BC64E  2802     		cmp r0, #2
005BC650  BF98 2000		lsmov r0, #0
005BC654  BF88 2001		himov r0, #1

005BC658  2800     		cmp r0, #0
005BC65A  D117     		bne #46 ; 0x005BC68C


005BC65E  2001     		mov r0, #1 ; 1

005BC660  4600     		mov r0, r0
005BC662  F8DF 4618		ldr r4, [pc, #+1560] ; 0x490519
005BC666  F044 0401		orr r4, r4, #1
005BC66A  47A0     		blx r4

005BC66C  F8DF 757C		ldr r7, [pc, #+1404] ; 0x10
005BC670  59F5     		ldr r5, [r6, +r7]
005BC672  F8DF 75B4		ldr r7, [pc, #+1460] ; 0x44
005BC676  EB07 0785		add r7, r7, r5, lsl #2
005BC67A  51F0     		str r0, [r6, +r7]

005BC67C  F8DF 756C		ldr r7, [pc, #+1388] ; 0x10
005BC680  59F0     		ldr r0, [r6, +r7]

005BC682  1C40     		add r0, r0, #1

005BC684  F8DF 7564		ldr r7, [pc, #+1380] ; 0x10
005BC688  51F0     		str r0, [r6, +r7]

005BC68A  E7DD     		b #-70 ; 0x005BC648

005BC68C  2001     		mov r0, #1 ; 1
005BC68E  F8DF 75C8		ldr r7, [pc, #+1480] ; 0x78
005BC692  55F0     		strb r0, [r6, +r7]

005BC694  F8DF 7560		ldr r7, [pc, #+1376] ; 0x18
005BC698  59F0     		ldr r0, [r6, +r7]

005BC69A  2700     		mov r7, #0 ; 0
005BC69C  42B8     		cmp r0, r7
005BC69E  BF18 2000		nemov r0, #0
005BC6A2  BF08 2001		eqmov r0, #1

005BC6A6  F8DF 75A0		ldr r7, [pc, #+1440] ; 0x6A
005BC6AA  5DF7     		ldrb r7, [r6, +r7]
005BC6AC  4038     		and r0, r0, r7

005BC6AE  2800     		cmp r0, #0
005BC6B0  D01A     		beq #52 ; 0x005BC6E8


005BC6B4  4630     		mov r0, r6
005BC6B6  F8DF 7540		ldr r7, [pc, #+1344] ; 0x18
005BC6BA  19C0     		add r0, r0, r7

005BC6BC  F8DF 75A0		ldr r7, [pc, #+1440] ; 0x7C
005BC6C0  51F0     		str r0, [r6, +r7]

005BC6C2  F8DF 7530		ldr r7, [pc, #+1328] ; 0x15
005BC6C6  5DF0     		ldrb r0, [r6, +r7]

005BC6C8  F8DF 7594		ldr r7, [pc, #+1428] ; 0x7C
005BC6CC  59F1     		ldr r1, [r6, +r7]
005BC6CE  4600     		mov r0, r0
005BC6D0  F8DF 45B0		ldr r4, [pc, #+1456] ; 0x4905B1
005BC6D4  F044 0401		orr r4, r4, #1
005BC6D8  47A0     		blx r4

005BC6DA  2800     		cmp r0, #0
005BC6DC  D004     		beq #8 ; 0x005BC6E8


005BC6E0  2001     		mov r0, #1 ; 1
005BC6E2  F8DF 750C		ldr r7, [pc, #+1292] ; 0x14
005BC6E6  55F0     		strb r0, [r6, +r7]

005BC6E8  F8DF 750C		ldr r7, [pc, #+1292] ; 0x18
005BC6EC  59F0     		ldr r0, [r6, +r7]

005BC6EE  2700     		mov r7, #0 ; 0
005BC6F0  42B8     		cmp r0, r7
005BC6F2  BF08 2000		eqmov r0, #0
005BC6F6  BF18 2001		nemov r0, #1

005BC6FA  B082     		sub sp, sp, #8
005BC6FC  F8CD 0000		str r0, [sp]
005BC700  F8DF 7544		ldr r7, [pc, #+1348] ; 0x6A
005BC704  5DF0     		ldrb r0, [r6, +r7]

005BC706  2800     		cmp r0, #0
005BC708  BF08 2001		eqmov r0, #1
005BC70C  BF18 2000		nemov r0, #0

005BC710  4607     		mov r7, r0
005BC712  F8DD 0000		ldr r0, [sp]
005BC716  B002     		add sp, sp, #8
005BC718  4038     		and r0, r0, r7

005BC71A  2800     		cmp r0, #0
005BC71C  D011     		beq #34 ; 0x005BC742


005BC720  2000     		mov r0, #0 ; 0
005BC722  F8DF 74CC		ldr r7, [pc, #+1228] ; 0x14
005BC726  55F0     		strb r0, [r6, +r7]

005BC728  4630     		mov r0, r6
005BC72A  F8DF 74CC		ldr r7, [pc, #+1228] ; 0x18
005BC72E  19C0     		add r0, r0, r7

005BC730  4600     		mov r0, r0
005BC732  F8DF 4554		ldr r4, [pc, #+1364] ; 0x4905F5
005BC736  F044 0401		orr r4, r4, #1
005BC73A  47A0     		blx r4

005BC73C  F8DF 74AC		ldr r7, [pc, #+1196] ; 0x10
005BC740  51F0     		str r0, [r6, +r7]

005BC742  F8DF 74A4		ldr r7, [pc, #+1188] ; 0xC
005BC746  59F0     		ldr r0, [r6, +r7]

005BC748  2800     		cmp r0, #0
005BC74A  BF08 2000		eqmov r0, #0
005BC74E  BF18 2001		nemov r0, #1

005BC752  2800     		cmp r0, #0
005BC754  F000 80AF		beq #350 ; 0x005BC8B6


005BC758  F8DF 7494		ldr r7, [pc, #+1172] ; 0x14
005BC75C  5DF0     		ldrb r0, [r6, +r7]

005BC75E  2800     		cmp r0, #0
005BC760  D04D     		beq #154 ; 0x005BC7FE


005BC764  2000     		mov r0, #0 ; 0

005BC766  2300     		mov r3, #0 ; 0
005BC768  2200     		mov r2, #0 ; 0
005BC76A  2100     		mov r1, #0 ; 0
005BC76C  4600     		mov r0, r0
005BC76E  F8DF 4508		ldr r4, [pc, #+1288] ; 0x48FE35
005BC772  F044 0401		orr r4, r4, #1
005BC776  47A0     		blx r4

005BC778  2800     		cmp r0, #0
005BC77A  BF08 2001		eqmov r0, #1
005BC77E  BF18 2000		nemov r0, #0

005BC782  2800     		cmp r0, #0
005BC784  D002     		beq #4 ; 0x005BC78C


005BC788  F000 BFDB		b #4022 ; 0x005BD742


005BC78C  4630     		mov r0, r6
005BC78E  F8DF 7458		ldr r7, [pc, #+1112] ; 0xC
005BC792  19C0     		add r0, r0, r7

005BC794  F8DF 74C8		ldr r7, [pc, #+1224] ; 0x7C
005BC798  51F0     		str r0, [r6, +r7]

005BC79A  F8DF 745C		ldr r7, [pc, #+1116] ; 0x18
005BC79E  59F0     		ldr r0, [r6, +r7]

005BC7A0  B082     		sub sp, sp, #8
005BC7A2  F8DF 74BC		ldr r7, [pc, #+1212] ; 0x7C
005BC7A6  59F7     		ldr r7, [r6, +r7]
005BC7A8  F8CD 7000		str r7, [sp]
005BC7AC  232A     		mov r3, #42 ; 42
005BC7AE  F8DF 74FC		ldr r7, [pc, #+1276] ; 0x5BA200
005BC7B2  463A     		mov r2, r7
005BC7B4  F8DF 743C		ldr r7, [pc, #+1084] ; 0x15
005BC7B8  5DF7     		ldrb r7, [r6, +r7]
005BC7BA  4639     		mov r1, r7
005BC7BC  4600     		mov r0, r0
005BC7BE  F8DF 44B4		ldr r4, [pc, #+1204] ; 0x48F96D
005BC7C2  F044 0401		orr r4, r4, #1
005BC7C6  47A0     		blx r4
005BC7C8  B002     		add sp, sp, #8

005BC7CA  F8DF 7420		ldr r7, [pc, #+1056] ; 0x10
005BC7CE  51F0     		str r0, [r6, +r7]

005BC7D0  F8DF 04C0		ldr r0, [pc, #+1216] ; 0x5BA0A4

005BC7D4  F8DF 7488		ldr r7, [pc, #+1160] ; 0x7C
005BC7D8  51F0     		str r0, [r6, +r7]

005BC7DA  2001     		mov r0, #1 ; 1

005BC7DC  F8DF 7418		ldr r7, [pc, #+1048] ; 0x18
005BC7E0  59F3     		ldr r3, [r6, +r7]
005BC7E2  F8DF 747C		ldr r7, [pc, #+1148] ; 0x7C
005BC7E6  59F2     		ldr r2, [r6, +r7]
005BC7E8  F04F 4180		mov r1, #1073741824 ; 1073741824
005BC7EC  4600     		mov r0, r0
005BC7EE  F8DF 4488		ldr r4, [pc, #+1160] ; 0x48FE35
005BC7F2  F044 0401		orr r4, r4, #1
005BC7F6  47A0     		blx r4

005BC7F8  F8DF 73F0		ldr r7, [pc, #+1008] ; 0x10
005BC7FC  51F0     		str r0, [r6, +r7]

005BC7FE  2000     		mov r0, #0 ; 0
005BC800  F8DF 73FC		ldr r7, [pc, #+1020] ; 0x24
005BC804  55F0     		strb r0, [r6, +r7]

005BC806  2000     		mov r0, #0 ; 0

005BC808  F8DF 73E0		ldr r7, [pc, #+992] ; 0x10
005BC80C  51F0     		str r0, [r6, +r7]

005BC80E  F8DF 73DC		ldr r7, [pc, #+988] ; 0x10
005BC812  59F0     		ldr r0, [r6, +r7]

005BC814  2802     		cmp r0, #2
005BC816  BF98 2000		lsmov r0, #0
005BC81A  BF88 2001		himov r0, #1

005BC81E  2800     		cmp r0, #0
005BC820  D117     		bne #46 ; 0x005BC852


005BC824  2001     		mov r0, #1 ; 1

005BC826  4600     		mov r0, r0
005BC828  F8DF 4450		ldr r4, [pc, #+1104] ; 0x490519
005BC82C  F044 0401		orr r4, r4, #1
005BC830  47A0     		blx r4

005BC832  F8DF 73B8		ldr r7, [pc, #+952] ; 0x10
005BC836  59F5     		ldr r5, [r6, +r7]
005BC838  F8DF 73EC		ldr r7, [pc, #+1004] ; 0x44
005BC83C  EB07 0785		add r7, r7, r5, lsl #2
005BC840  51F0     		str r0, [r6, +r7]

005BC842  F8DF 73A8		ldr r7, [pc, #+936] ; 0x10
005BC846  59F0     		ldr r0, [r6, +r7]

005BC848  1C40     		add r0, r0, #1

005BC84A  F8DF 73A0		ldr r7, [pc, #+928] ; 0x10
005BC84E  51F0     		str r0, [r6, +r7]

005BC850  E7DD     		b #-70 ; 0x005BC80E

005BC852  F8DF 7394		ldr r7, [pc, #+916] ; 0xC
005BC856  59F0     		ldr r0, [r6, +r7]

005BC858  4600     		mov r0, r0
005BC85A  F8DF 4424		ldr r4, [pc, #+1060] ; 0x490561
005BC85E  F044 0401		orr r4, r4, #1
005BC862  47A0     		blx r4

005BC864  F8DF 7384		ldr r7, [pc, #+900] ; 0x10
005BC868  51F0     		str r0, [r6, +r7]

005BC86A  2000     		mov r0, #0 ; 0
005BC86C  F8DF 73E4		ldr r7, [pc, #+996] ; 0x74
005BC870  F856 C007		ldr r12, [r6, +r7]
005BC874  F8DF 7360		ldr r7, [pc, #+864] ; 0x3
005BC878  F80C 0007		strb r0, [r12, +r7]

005BC87C  F8DF 73D4		ldr r7, [pc, #+980] ; 0x74
005BC880  F856 C007		ldr r12, [r6, +r7]
005BC884  F8DF 7378		ldr r7, [pc, #+888] ; 0x24
005BC888  F85C 0007		ldr r0, [r12, +r7]

005BC88C  1C40     		add r0, r0, #1

005BC88E  F8DF 73C4		ldr r7, [pc, #+964] ; 0x74
005BC892  F856 C007		ldr r12, [r6, +r7]
005BC896  F8DF 7368		ldr r7, [pc, #+872] ; 0x24
005BC89A  F84C 0007		str r0, [r12, +r7]

005BC89E  2000     		mov r0, #0 ; 0
005BC8A0  F8DF 7344		ldr r7, [pc, #+836] ; 0xC
005BC8A4  51F0     		str r0, [r6, +r7]

005BC8A6  2001     		mov r0, #1 ; 1
005BC8A8  F8DF 73B0		ldr r7, [pc, #+944] ; 0x79
005BC8AC  55F0     		strb r0, [r6, +r7]

005BC8AE  2000     		mov r0, #0 ; 0
005BC8B0  7030     		strb r0, [r6]

005BC8B2  F000 BF46		b #3724 ; 0x005BD742


005BC8B6  2001     		mov r0, #1 ; 1
005BC8B8  F8DF 7344		ldr r7, [pc, #+836] ; 0x24
005BC8BC  55F0     		strb r0, [r6, +r7]

005BC8BE  F8DF 7364		ldr r7, [pc, #+868] ; 0x40
005BC8C2  59F0     		ldr r0, [r6, +r7]

005BC8C4  4600     		mov r0, r0
005BC8C6  F8DF 43C8		ldr r4, [pc, #+968] ; 0x490ACD
005BC8CA  F044 0401		orr r4, r4, #1
005BC8CE  47A0     		blx r4

005BC8D0  2800     		cmp r0, #0
005BC8D2  BF08 2001		eqmov r0, #1
005BC8D6  BF18 2000		nemov r0, #0

005BC8DA  2800     		cmp r0, #0
005BC8DC  D015     		beq #42 ; 0x005BC90A


005BC8E0  F8DF 7370		ldr r7, [pc, #+880] ; 0x74
005BC8E4  F856 C007		ldr r12, [r6, +r7]
005BC8E8  F8DF 72EC		ldr r7, [pc, #+748] ; 0x3
005BC8EC  F81C 0007		ldrb r0, [r12, +r7]

005BC8F0  2800     		cmp r0, #0
005BC8F2  D006     		beq #12 ; 0x005BC902


005BC8F6  F8DF 73B8		ldr r7, [pc, #+952] ; 0x5BA220
005BC8FA  6838     		ldr r0, [r7]
005BC8FC  F8DF 72E8		ldr r7, [pc, #+744] ; 0xC
005BC900  51F0     		str r0, [r6, +r7]

005BC902  2000     		mov r0, #0 ; 0
005BC904  7030     		strb r0, [r6]

005BC906  F000 BF1C		b #3640 ; 0x005BD742


005BC90A  2001     		mov r0, #1 ; 1

005BC90C  4600     		mov r0, r0
005BC90E  F8DF 436C		ldr r4, [pc, #+876] ; 0x490519
005BC912  F044 0401		orr r4, r4, #1
005BC916  47A0     		blx r4

005BC918  F8DF 7310		ldr r7, [pc, #+784] ; 0x48
005BC91C  59F7     		ldr r7, [r6, +r7]
005BC91E  1BC0     		sub r0, r0, r7

005BC920  F8DF 7340		ldr r7, [pc, #+832] ; 0x80
005BC924  51F0     		str r0, [r6, +r7]

005BC926  F8DF 732C		ldr r7, [pc, #+812] ; 0x74
005BC92A  F856 C007		ldr r12, [r6, +r7]
005BC92E  F8DF 72B0		ldr r7, [pc, #+688] ; 0x5
005BC932  F81C 0007		ldrb r0, [r12, +r7]

005BC936  F8DF 7360		ldr r7, [pc, #+864] ; 0x5BA0AC
005BC93A  683F     		ldr r7, [r7]
005BC93C  4378     		mul r0, r0, r7

005BC93E  F8DF 7328		ldr r7, [pc, #+808] ; 0x84
005BC942  51F0     		str r0, [r6, +r7]

005BC944  F8DF 7320		ldr r7, [pc, #+800] ; 0x84
005BC948  59F0     		ldr r0, [r6, +r7]

005BC94A  F8DF 7320		ldr r7, [pc, #+800] ; 0x88
005BC94E  51F0     		str r0, [r6, +r7]

005BC950  F8DF 7310		ldr r7, [pc, #+784] ; 0x80
005BC954  59F0     		ldr r0, [r6, +r7]

005BC956  F8DF 7314		ldr r7, [pc, #+788] ; 0x88
005BC95A  59F7     		ldr r7, [r6, +r7]
005BC95C  42B8     		cmp r0, r7
005BC95E  BF98 2000		lsmov r0, #0
005BC962  BF88 2001		himov r0, #1

005BC966  2800     		cmp r0, #0
005BC968  D008     		beq #16 ; 0x005BC97C


005BC96C  F8DF 7344		ldr r7, [pc, #+836] ; 0x5BA224
005BC970  6838     		ldr r0, [r7]
005BC972  F8DF 7274		ldr r7, [pc, #+628] ; 0xC
005BC976  51F0     		str r0, [r6, +r7]

005BC978  F000 BEE3		b #3526 ; 0x005BD742


005BC97C  F8DF 72D4		ldr r7, [pc, #+724] ; 0x74
005BC980  F856 C007		ldr r12, [r6, +r7]
005BC984  F8DF 7250		ldr r7, [pc, #+592] ; 0x3
005BC988  F81C 0007		ldrb r0, [r12, +r7]

005BC98C  2800     		cmp r0, #0
005BC98E  D039     		beq #114 ; 0x005BCA04


005BC992  2001     		mov r0, #1 ; 1

005BC994  4600     		mov r0, r0
005BC996  F8DF 42E4		ldr r4, [pc, #+740] ; 0x490519
005BC99A  F044 0401		orr r4, r4, #1
005BC99E  47A0     		blx r4

005BC9A0  F8DF 728C		ldr r7, [pc, #+652] ; 0x4C
005BC9A4  59F7     		ldr r7, [r6, +r7]
005BC9A6  1BC0     		sub r0, r0, r7

005BC9A8  F8DF 72B8		ldr r7, [pc, #+696] ; 0x80
005BC9AC  51F0     		str r0, [r6, +r7]

005BC9AE  F8DF 72A4		ldr r7, [pc, #+676] ; 0x74
005BC9B2  F856 C007		ldr r12, [r6, +r7]
005BC9B6  F8DF 722C		ldr r7, [pc, #+556] ; 0x6
005BC9BA  F81C 0007		ldrb r0, [r12, +r7]

005BC9BE  F8DF 72D8		ldr r7, [pc, #+728] ; 0x5BA0AC
005BC9C2  683F     		ldr r7, [r7]
005BC9C4  4378     		mul r0, r0, r7

005BC9C6  F8DF 72A0		ldr r7, [pc, #+672] ; 0x84
005BC9CA  51F0     		str r0, [r6, +r7]

005BC9CC  F8DF 7298		ldr r7, [pc, #+664] ; 0x84
005BC9D0  59F0     		ldr r0, [r6, +r7]

005BC9D2  F8DF 7298		ldr r7, [pc, #+664] ; 0x88
005BC9D6  51F0     		str r0, [r6, +r7]

005BC9D8  F8DF 7288		ldr r7, [pc, #+648] ; 0x80
005BC9DC  59F0     		ldr r0, [r6, +r7]

005BC9DE  F8DF 728C		ldr r7, [pc, #+652] ; 0x88
005BC9E2  59F7     		ldr r7, [r6, +r7]
005BC9E4  42B8     		cmp r0, r7
005BC9E6  BF98 2000		lsmov r0, #0
005BC9EA  BF88 2001		himov r0, #1

005BC9EE  2800     		cmp r0, #0
005BC9F0  D008     		beq #16 ; 0x005BCA04


005BC9F4  F8DF 72C0		ldr r7, [pc, #+704] ; 0x5BA228
005BC9F8  6838     		ldr r0, [r7]
005BC9FA  F8DF 71EC		ldr r7, [pc, #+492] ; 0xC
005BC9FE  51F0     		str r0, [r6, +r7]

005BCA00  F000 BE9F		b #3390 ; 0x005BD742


005BCA04  7830     		ldrb r0, [r6]

005BCA06  2800     		cmp r0, #0
005BCA08  BF18 2000		nemov r0, #0
005BCA0C  BF08 2001		eqmov r0, #1

005BCA10  2800     		cmp r0, #0
005BCA12  D00A     		beq #20 ; 0x005BCA2A


005BCA16  2001     		mov r0, #1 ; 1

005BCA18  4600     		mov r0, r0
005BCA1A  F8DF 4260		ldr r4, [pc, #+608] ; 0x490519
005BCA1E  F044 0401		orr r4, r4, #1
005BCA22  47A0     		blx r4

005BCA24  F8DF 7200		ldr r7, [pc, #+512] ; 0x44
005BCA28  51F0     		str r0, [r6, +r7]

005BCA2A  2001     		mov r0, #1 ; 1

005BCA2C  4600     		mov r0, r0
005BCA2E  F8DF 424C		ldr r4, [pc, #+588] ; 0x490519
005BCA32  F044 0401		orr r4, r4, #1
005BCA36  47A0     		blx r4

005BCA38  F8DF 71EC		ldr r7, [pc, #+492] ; 0x44
005BCA3C  59F7     		ldr r7, [r6, +r7]
005BCA3E  1BC0     		sub r0, r0, r7

005BCA40  F8DF 7258		ldr r7, [pc, #+600] ; 0x5BA0C0
005BCA44  683F     		ldr r7, [r7]
005BCA46  42B8     		cmp r0, r7
005BCA48  BF98 2000		lsmov r0, #0
005BCA4C  BF88 2001		himov r0, #1

005BCA50  2800     		cmp r0, #0
005BCA52  D008     		beq #16 ; 0x005BCA66


005BCA56  F8DF 7264		ldr r7, [pc, #+612] ; 0x5BA22C
005BCA5A  6838     		ldr r0, [r7]
005BCA5C  F8DF 7188		ldr r7, [pc, #+392] ; 0xC
005BCA60  51F0     		str r0, [r6, +r7]

005BCA62  F000 BE6E		b #3292 ; 0x005BD742


005BCA66  F8DF 71EC		ldr r7, [pc, #+492] ; 0x74
005BCA6A  F856 C007		ldr r12, [r6, +r7]
005BCA6E  F8DF 7164		ldr r7, [pc, #+356] ; 0x1
005BCA72  F81C 0007		ldrb r0, [r12, +r7]

005BCA76  2800     		cmp r0, #0
005BCA78  F000 8167		beq #718 ; 0x005BCD4A


005BCA7C  F8DF 71B4		ldr r7, [pc, #+436] ; 0x50
005BCA80  59F0     		ldr r0, [r6, +r7]

005BCA82  2700     		mov r7, #0 ; 0
005BCA84  42B8     		cmp r0, r7
005BCA86  BF18 2000		nemov r0, #0
005BCA8A  BF08 2001		eqmov r0, #1

005BCA8E  2800     		cmp r0, #0
005BCA90  D04A     		beq #148 ; 0x005BCB28


005BCA94  F8DF 71BC		ldr r7, [pc, #+444] ; 0x74
005BCA98  F856 C007		ldr r12, [r6, +r7]
005BCA9C  F8DF 7150		ldr r7, [pc, #+336] ; 0x14
005BCAA0  F85C 0007		ldr r0, [r12, +r7]
005BCAA4  F8DF 7198		ldr r7, [pc, #+408] ; 0x60
005BCAA8  51F0     		str r0, [r6, +r7]

005BCAAA  4630     		mov r0, r6
005BCAAC  F8DF 7184		ldr r7, [pc, #+388] ; 0x50
005BCAB0  19C0     		add r0, r0, r7

005BCAB2  F8DF 71AC		ldr r7, [pc, #+428] ; 0x7C
005BCAB6  51F0     		str r0, [r6, +r7]

005BCAB8  F8DF 7184		ldr r7, [pc, #+388] ; 0x60
005BCABC  59F0     		ldr r0, [r6, +r7]

005BCABE  F8DF 71A0		ldr r7, [pc, #+416] ; 0x7C
005BCAC2  59F1     		ldr r1, [r6, +r7]
005BCAC4  4600     		mov r0, r0
005BCAC6  F8DF 41BC		ldr r4, [pc, #+444] ; 0x4905B1
005BCACA  F044 0401		orr r4, r4, #1
005BCACE  47A0     		blx r4

005BCAD0  2800     		cmp r0, #0
005BCAD2  BF08 2001		eqmov r0, #1
005BCAD6  BF18 2000		nemov r0, #0

005BCADA  2800     		cmp r0, #0
005BCADC  D008     		beq #16 ; 0x005BCAF0


005BCAE0  F8DF 71DC		ldr r7, [pc, #+476] ; 0x5BA230
005BCAE4  6838     		ldr r0, [r7]
005BCAE6  F8DF 7100		ldr r7, [pc, #+256] ; 0xC
005BCAEA  51F0     		str r0, [r6, +r7]

005BCAEC  F000 BE29		b #3154 ; 0x005BD742


005BCAF0  F8DF 7140		ldr r7, [pc, #+320] ; 0x50
005BCAF4  59F0     		ldr r0, [r6, +r7]

005BCAF6  F8DF 715C		ldr r7, [pc, #+348] ; 0x74
005BCAFA  F856 C007		ldr r12, [r6, +r7]
005BCAFE  F8DF 70F0		ldr r7, [pc, #+240] ; 0x14
005BCB02  F85C 2007		ldr r2, [r12, +r7]
005BCB06  F8DF 714C		ldr r7, [pc, #+332] ; 0x74
005BCB0A  F856 C007		ldr r12, [r6, +r7]
005BCB0E  F8DF 70DC		ldr r7, [pc, #+220] ; 0x10
005BCB12  F85C 1007		ldr r1, [r12, +r7]
005BCB16  4600     		mov r0, r0
005BCB18  F8DF 4170		ldr r4, [pc, #+368] ; 0x4907E5
005BCB1C  F044 0401		orr r4, r4, #1
005BCB20  47A0     		blx r4

005BCB22  F8DF 70C8		ldr r7, [pc, #+200] ; 0x10
005BCB26  51F0     		str r0, [r6, +r7]

005BCB28  F8DF 7128		ldr r7, [pc, #+296] ; 0x74
005BCB2C  F856 C007		ldr r12, [r6, +r7]
005BCB30  F8DF 70BC		ldr r7, [pc, #+188] ; 0x14
005BCB34  F85C 0007		ldr r0, [r12, +r7]

005BCB38  F8DF 7104		ldr r7, [pc, #+260] ; 0x60
005BCB3C  59F7     		ldr r7, [r6, +r7]
005BCB3E  42B8     		cmp r0, r7
005BCB40  BF08 2000		eqmov r0, #0
005BCB44  BF18 2001		nemov r0, #1

005BCB48  2800     		cmp r0, #0
005BCB4A  D008     		beq #16 ; 0x005BCB5E


005BCB4E  F8DF 7174		ldr r7, [pc, #+372] ; 0x5BA234
005BCB52  6838     		ldr r0, [r7]
005BCB54  F8DF 7090		ldr r7, [pc, #+144] ; 0xC
005BCB58  51F0     		str r0, [r6, +r7]

005BCB5A  F000 BDF2		b #3044 ; 0x005BD742


005BCB5E  7830     		ldrb r0, [r6]

005BCB60  2800     		cmp r0, #0
005BCB62  BF18 2000		nemov r0, #0
005BCB66  BF08 2001		eqmov r0, #1

005BCB6A  F8DF 70E8		ldr r7, [pc, #+232] ; 0x74
005BCB6E  F856 C007		ldr r12, [r6, +r7]
005BCB72  F8DF 7064		ldr r7, [pc, #+100] ; 0x3
005BCB76  F81C 7007		ldrb r7, [r12, +r7]
005BCB7A  4038     		and r0, r0, r7

005BCB7C  2800     		cmp r0, #0
005BCB7E  F000 80E4		beq #456 ; 0x005BCD4A


005BCB82  F8DF 70B0		ldr r7, [pc, #+176] ; 0x50
005BCB86  59F0     		ldr r0, [r6, +r7]
005BCB88  F8DF 70AC		ldr r7, [pc, #+172] ; 0x58
005BCB8C  51F0     		str r0, [r6, +r7]

005BCB8E  F8DF 70C4		ldr r7, [pc, #+196] ; 0x74
005BCB92  F856 C007		ldr r12, [r6, +r7]
005BCB96  F8DF 7054		ldr r7, [pc, #+84] ; 0x10
005BCB9A  F85C 0007		ldr r0, [r12, +r7]
005BCB9E  F8DF 709C		ldr r7, [pc, #+156] ; 0x5C
005BCBA2  51F0     		str r0, [r6, +r7]

005BCBA4  2000     		mov r0, #0 ; 0

005BCBA6  F8DF 7044		ldr r7, [pc, #+68] ; 0x10
005BCBAA  51F0     		str r0, [r6, +r7]

005BCBAC  F8DF 703C		ldr r7, [pc, #+60] ; 0x10
005BCBB0  59F0     		ldr r0, [r6, +r7]

005BCBB2  B082     		sub sp, sp, #8
005BCBB4  F8CD 0000		str r0, [sp]
005BCBB8  F8DF 7084		ldr r7, [pc, #+132] ; 0x60
005BCBBC  59F0     		ldr r0, [r6, +r7]

005BCBBE  1E40     		sub r0, r0, #1

005BCBC0  4607     		mov r7, r0
005BCBC2  F8DD 0000		ldr r0, [sp]
005BCBC6  B002     		add sp, sp, #8
005BCBC8  42B8     		cmp r0, r7
005BCBCA  BF98 2000		lsmov r0, #0
005BCBCE  BF88 2001		himov r0, #1

005BCBD2  E07D     		b #250

005BCBD4  00000001		; 0x00000001
005BCBD8  00000003		; 0x00000003
005BCBDC  00000004		; 0x00000004
005BCBE0  00000005		; 0x00000005
005BCBE4  00000006		; 0x00000006
005BCBE8  0000000C		; 0x0000000C
005BCBEC  00000010		; 0x00000010
005BCBF0  00000014		; 0x00000014
005BCBF4  00000015		; 0x00000015
005BCBF8  00000018		; 0x00000018
005BCBFC  0000001C		; 0x0000001C
005BCC00  00000024		; 0x00000024
005BCC04  00000028		; 0x00000028
005BCC08  0000002C		; 0x0000002C
005BCC0C  00000030		; 0x00000030
005BCC10  00000034		; 0x00000034
005BCC14  00000036		; 0x00000036
005BCC18  00000038		; 0x00000038
005BCC1C  0000003A		; 0x0000003A
005BCC20  0000003C		; 0x0000003C
005BCC24  00000040		; 0x00000040
005BCC28  00000044		; 0x00000044
005BCC2C  00000048		; 0x00000048
005BCC30  0000004C		; 0x0000004C
005BCC34  00000050		; 0x00000050
005BCC38  00000058		; 0x00000058
005BCC3C  0000005C		; 0x0000005C
005BCC40  00000060		; 0x00000060
005BCC44  00000069		; 0x00000069
005BCC48  0000006A		; 0x0000006A
005BCC4C  0000006C		; 0x0000006C
005BCC50  00000070		; 0x00000070
005BCC54  00000074		; 0x00000074
005BCC58  00000078		; 0x00000078
005BCC5C  00000079		; 0x00000079
005BCC60  0000007C		; 0x0000007C
005BCC64  00000080		; 0x00000080
005BCC68  00000084		; 0x00000084
005BCC6C  00000088		; 0x00000088
005BCC70  0048EB99		; 0x0048EB99
005BCC74  0048F96D		; 0x0048F96D
005BCC78  0048FE35		; 0x0048FE35
005BCC7C  00490519		; 0x00490519
005BCC80  00490561		; 0x00490561
005BCC84  004905B1		; 0x004905B1
005BCC88  004905F5		; 0x004905F5
005BCC8C  004907E5		; 0x004907E5
005BCC90  00490ACD		; 0x00490ACD
005BCC94  005BA0A4		; 0x005BA0A4
005BCC98  005BA0AC		; 0x005BA0AC
005BCC9C  005BA0C0		; 0x005BA0C0
005BCCA0  005BA1F0		; 0x005BA1F0
005BCCA4  005BA1F4		; 0x005BA1F4
005BCCA8  005BA1F8		; 0x005BA1F8
005BCCAC  005BA200		; 0x005BA200
005BCCB0  005BA220		; 0x005BA220
005BCCB4  005BA224		; 0x005BA224
005BCCB8  005BA228		; 0x005BA228
005BCCBC  005BA22C		; 0x005BA22C
005BCCC0  005BA230		; 0x005BA230
005BCCC4  005BA234		; 0x005BA234
005BCCC8  005BA358		; 0x005BA358
005BCCCC  20412E8C		; 0x20412E8C

005BCCD0  2800     		cmp r0, #0
005BCCD2  D13A     		bne #116 ; 0x005BCD4A


005BCCD6  F85F 70A0		ldr r7, [pc, #-160] ; 0x58
005BCCDA  F856 C007		ldr r12, [r6, +r7]
005BCCDE  F89C 0000		ldrb r0, [r12]

005BCCE2  F85F 70A8		ldr r7, [pc, #-168] ; 0x5C
005BCCE6  F856 C007		ldr r12, [r6, +r7]
005BCCEA  F89C 7000		ldrb r7, [r12]
005BCCEE  42B8     		cmp r0, r7
005BCCF0  BF08 2000		eqmov r0, #0
005BCCF4  BF18 2001		nemov r0, #1

005BCCF8  2800     		cmp r0, #0
005BCCFA  D010     		beq #32 ; 0x005BCD1E


005BCCFE  2001     		mov r0, #1 ; 1
005BCD00  F8DF 77E0		ldr r7, [pc, #+2016] ; 0x54
005BCD04  55F0     		strb r0, [r6, +r7]

005BCD06  F85F 70CC		ldr r7, [pc, #-204] ; 0x5C
005BCD0A  F856 C007		ldr r12, [r6, +r7]
005BCD0E  F89C 0000		ldrb r0, [r12]
005BCD12  F85F 70DC		ldr r7, [pc, #-220] ; 0x58
005BCD16  F856 C007		ldr r12, [r6, +r7]
005BCD1A  F88C 0000		strb r0, [r12]

005BCD1E  F85F 70E8		ldr r7, [pc, #-232] ; 0x58
005BCD22  59F0     		ldr r0, [r6, +r7]

005BCD24  1C40     		add r0, r0, #1

005BCD26  F85F 70F0		ldr r7, [pc, #-240] ; 0x58
005BCD2A  51F0     		str r0, [r6, +r7]

005BCD2C  F85F 70F4		ldr r7, [pc, #-244] ; 0x5C
005BCD30  59F0     		ldr r0, [r6, +r7]

005BCD32  1C40     		add r0, r0, #1

005BCD34  F85F 70FC		ldr r7, [pc, #-252] ; 0x5C
005BCD38  51F0     		str r0, [r6, +r7]

005BCD3A  F85F 7150		ldr r7, [pc, #-336] ; 0x10
005BCD3E  59F0     		ldr r0, [r6, +r7]

005BCD40  1C40     		add r0, r0, #1

005BCD42  F85F 7158		ldr r7, [pc, #-344] ; 0x10
005BCD46  51F0     		str r0, [r6, +r7]

005BCD48  E730     		b #-416 ; 0x005BCBAC

005BCD4A  2001     		mov r0, #1 ; 1

005BCD4C  2800     		cmp r0, #0
005BCD4E  F000 84F8		beq #2544 ; 0x005BD742


005BCD52  2000     		mov r0, #0 ; 0

005BCD54  2300     		mov r3, #0 ; 0
005BCD56  2200     		mov r2, #0 ; 0
005BCD58  2100     		mov r1, #0 ; 0
005BCD5A  4600     		mov r0, r0
005BCD5C  F85F 40E8		ldr r4, [pc, #-232] ; 0x48FE35
005BCD60  F044 0401		orr r4, r4, #1
005BCD64  47A0     		blx r4

005BCD66  2800     		cmp r0, #0
005BCD68  BF08 2001		eqmov r0, #1
005BCD6C  BF18 2000		nemov r0, #0

005BCD70  F85F 712C		ldr r7, [pc, #-300] ; 0x6A
005BCD74  5DF7     		ldrb r7, [r6, +r7]
005BCD76  4038     		and r0, r0, r7

005BCD78  2800     		cmp r0, #0
005BCD7A  D002     		beq #4 ; 0x005BCD82


005BCD7E  F000 BCE0		b #2496 ; 0x005BD742


005BCD82  7830     		ldrb r0, [r6]

005BCD84  2800     		cmp r0, #0
005BCD86  BF18 2000		nemov r0, #0
005BCD8A  BF08 2001		eqmov r0, #1

005BCD8E  2800     		cmp r0, #0
005BCD90  D126     		bne #76 ; 0x005BCDE0


005BCD94  7830     		ldrb r0, [r6]

005BCD96  2832     		cmp r0, #50
005BCD98  BF18 2000		nemov r0, #0
005BCD9C  BF08 2001		eqmov r0, #1

005BCDA0  2800     		cmp r0, #0
005BCDA2  F040 8175		bne #746 ; 0x005BD090


005BCDA6  7830     		ldrb r0, [r6]

005BCDA8  2833     		cmp r0, #51
005BCDAA  BF18 2000		nemov r0, #0
005BCDAE  BF08 2001		eqmov r0, #1

005BCDB2  2800     		cmp r0, #0
005BCDB4  F040 820F		bne #1054 ; 0x005BD1D6


005BCDB8  7830     		ldrb r0, [r6]

005BCDBA  2864     		cmp r0, #100
005BCDBC  BF18 2000		nemov r0, #0
005BCDC0  BF08 2001		eqmov r0, #1

005BCDC4  2800     		cmp r0, #0
005BCDC6  F040 82DD		bne #1466 ; 0x005BD384


005BCDCA  7830     		ldrb r0, [r6]

005BCDCC  2865     		cmp r0, #101
005BCDCE  BF18 2000		nemov r0, #0
005BCDD2  BF08 2001		eqmov r0, #1

005BCDD6  2800     		cmp r0, #0
005BCDD8  F040 83BC		bne #1912 ; 0x005BD554


005BCDDC  F000 BCA7		b #2382 ; 0x005BD72E


005BCDE0  F85F 71C0		ldr r7, [pc, #-448] ; 0x40
005BCDE4  59F0     		ldr r0, [r6, +r7]

005BCDE6  4600     		mov r0, r0
005BCDE8  F8DF 4728		ldr r4, [pc, #+1832] ; 0x490CBD
005BCDEC  F044 0401		orr r4, r4, #1
005BCDF0  47A0     		blx r4

005BCDF2  F8DF 76FC		ldr r7, [pc, #+1788] ; 0x8C
005BCDF6  53F0     		strh r0, [r6, +r7]

005BCDF8  F8DF 76F4		ldr r7, [pc, #+1780] ; 0x8C
005BCDFC  5FF0     		ldrsh r0, [r6, +r7]

005BCDFE  F85F 719C		ldr r7, [pc, #-412] ; 0x80
005BCE02  51F0     		str r0, [r6, +r7]

005BCE04  F85F 71E4		ldr r7, [pc, #-484] ; 0x40
005BCE08  59F0     		ldr r0, [r6, +r7]

005BCE0A  4600     		mov r0, r0
005BCE0C  F8DF 4708		ldr r4, [pc, #+1800] ; 0x490D6D
005BCE10  F044 0401		orr r4, r4, #1
005BCE14  47A0     		blx r4

005BCE16  F85F 71B4		ldr r7, [pc, #-436] ; 0x80
005BCE1A  59F7     		ldr r7, [r6, +r7]
005BCE1C  42B8     		cmp r0, r7
005BCE1E  BF18 2000		nemov r0, #0
005BCE22  BF08 2001		eqmov r0, #1

005BCE26  2800     		cmp r0, #0
005BCE28  F000 80EA		beq #468 ; 0x005BD000


005BCE2C  F8DF 76BC		ldr r7, [pc, #+1724] ; 0x68
005BCE30  5DF0     		ldrb r0, [r6, +r7]

005BCE32  2800     		cmp r0, #0
005BCE34  D041     		beq #130 ; 0x005BCEBA


005BCE38  2000     		mov r0, #0 ; 0
005BCE3A  F8DF 76B0		ldr r7, [pc, #+1712] ; 0x68
005BCE3E  55F0     		strb r0, [r6, +r7]

005BCE40  F85F 71F0		ldr r7, [pc, #-496] ; 0x74
005BCE44  F856 C007		ldr r12, [r6, +r7]
005BCE48  F85F 7250		ldr r7, [pc, #-592] ; 0x1C
005BCE4C  F85C 0007		ldr r0, [r12, +r7]

005BCE50  1C40     		add r0, r0, #1

005BCE52  F85F 7200		ldr r7, [pc, #-512] ; 0x74
005BCE56  F856 C007		ldr r12, [r6, +r7]
005BCE5A  F85F 7260		ldr r7, [pc, #-608] ; 0x1C
005BCE5E  F84C 0007		str r0, [r12, +r7]

005BCE62  2001     		mov r0, #1 ; 1

005BCE64  4600     		mov r0, r0
005BCE66  F85F 41EC		ldr r4, [pc, #-492] ; 0x490519
005BCE6A  F044 0401		orr r4, r4, #1
005BCE6E  47A0     		blx r4

005BCE70  F85F 7248		ldr r7, [pc, #-584] ; 0x48
005BCE74  59F7     		ldr r7, [r6, +r7]
005BCE76  1BC0     		sub r0, r0, r7

005BCE78  F85F 7218		ldr r7, [pc, #-536] ; 0x80
005BCE7C  51F0     		str r0, [r6, +r7]

005BCE7E  F85F 721C		ldr r7, [pc, #-540] ; 0x80
005BCE82  59F0     		ldr r0, [r6, +r7]

005BCE84  F8DF 4694		ldr r4, [pc, #+1684] ; 0x4A4509
005BCE88  F044 0401		orr r4, r4, #1
005BCE8C  47A0     		blx r4

005BCE8E  B082     		sub sp, sp, #8
005BCE90  F8CD 1000		str r1, [sp]
005BCE94  F8DF 768C		ldr r7, [pc, #+1676] ; 0x5BA0C8
005BCE98  6839     		ldr r1, [r7]
005BCE9A  F8DF 4684		ldr r4, [pc, #+1668] ; 0x4A4585
005BCE9E  F044 0401		orr r4, r4, #1
005BCEA2  47A0     		blx r4
005BCEA4  F8DD 1000		ldr r1, [sp]
005BCEA8  B002     		add sp, sp, #8

005BCEAA  F85F 7258		ldr r7, [pc, #-600] ; 0x74
005BCEAE  F856 C007		ldr r12, [r6, +r7]
005BCEB2  F8DF 762C		ldr r7, [pc, #+1580] ; 0x20
005BCEB6  F84C 0007		str r0, [r12, +r7]

005BCEBA  F85F 7268		ldr r7, [pc, #-616] ; 0x74
005BCEBE  F856 C007		ldr r12, [r6, +r7]
005BCEC2  F8DF 7610		ldr r7, [pc, #+1552] ; 0x2
005BCEC6  F81C 0007		ldrb r0, [r12, +r7]

005BCECA  F8DF 7618		ldr r7, [pc, #+1560] ; 0x54
005BCECE  5DF7     		ldrb r7, [r6, +r7]
005BCED0  4338     		orr r0, r0, r7

005BCED2  F85F 7280		ldr r7, [pc, #-640] ; 0x74
005BCED6  F856 C007		ldr r12, [r6, +r7]
005BCEDA  F85F 7304		ldr r7, [pc, #-772] ; 0x3
005BCEDE  F81C 7007		ldrb r7, [r12, +r7]
005BCEE2  4038     		and r0, r0, r7

005BCEE4  2800     		cmp r0, #0
005BCEE6  D023     		beq #70 ; 0x005BCF30


005BCEEA  F85F 72FC		ldr r7, [pc, #-764] ; 0x14
005BCEEE  5DF0     		ldrb r0, [r6, +r7]

005BCEF0  2800     		cmp r0, #0
005BCEF2  D01B     		beq #54 ; 0x005BCF2C


005BCEF6  F8DF 0630		ldr r0, [pc, #+1584] ; 0x5BA0CC

005BCEFA  F85F 729C		ldr r7, [pc, #-668] ; 0x7C
005BCEFE  51F0     		str r0, [r6, +r7]

005BCF00  F8DF 0630		ldr r0, [pc, #+1584] ; 0x5BA238

005BCF04  F8DF 75EC		ldr r7, [pc, #+1516] ; 0x90
005BCF08  51F0     		str r0, [r6, +r7]

005BCF0A  2001     		mov r0, #1 ; 1

005BCF0C  F8DF 75E4		ldr r7, [pc, #+1508] ; 0x90
005BCF10  59F3     		ldr r3, [r6, +r7]
005BCF12  F85F 72B4		ldr r7, [pc, #-692] ; 0x7C
005BCF16  59F2     		ldr r2, [r6, +r7]
005BCF18  2102     		mov r1, #2 ; 2
005BCF1A  4600     		mov r0, r0
005BCF1C  F85F 42A8		ldr r4, [pc, #-680] ; 0x48FE35
005BCF20  F044 0401		orr r4, r4, #1
005BCF24  47A0     		blx r4

005BCF26  F85F 733C		ldr r7, [pc, #-828] ; 0x10
005BCF2A  51F0     		str r0, [r6, +r7]

005BCF2C  2064     		mov r0, #100 ; 100
005BCF2E  7030     		strb r0, [r6]

005BCF30  F85F 72E0		ldr r7, [pc, #-736] ; 0x74
005BCF34  F856 C007		ldr r12, [r6, +r7]
005BCF38  F85F 7364		ldr r7, [pc, #-868] ; 0x3
005BCF3C  F81C 0007		ldrb r0, [r12, +r7]

005BCF40  2800     		cmp r0, #0
005BCF42  BF08 2001		eqmov r0, #1
005BCF46  BF18 2000		nemov r0, #0

005BCF4A  F8DF 75AC		ldr r7, [pc, #+1452] ; 0x94
005BCF4E  55F0     		strb r0, [r6, +r7]

005BCF50  2001     		mov r0, #1 ; 1

005BCF52  4600     		mov r0, r0
005BCF54  F85F 42DC		ldr r4, [pc, #-732] ; 0x490519
005BCF58  F044 0401		orr r4, r4, #1
005BCF5C  47A0     		blx r4

005BCF5E  F85F 7334		ldr r7, [pc, #-820] ; 0x48
005BCF62  59F7     		ldr r7, [r6, +r7]
005BCF64  1BC0     		sub r0, r0, r7

005BCF66  F85F 7304		ldr r7, [pc, #-772] ; 0x80
005BCF6A  51F0     		str r0, [r6, +r7]

005BCF6C  F85F 731C		ldr r7, [pc, #-796] ; 0x74
005BCF70  F856 C007		ldr r12, [r6, +r7]
005BCF74  F85F 7398		ldr r7, [pc, #-920] ; 0x5
005BCF78  F81C 0007		ldrb r0, [r12, +r7]

005BCF7C  F8DF 75AC		ldr r7, [pc, #+1452] ; 0x5BA110
005BCF80  683F     		ldr r7, [r7]
005BCF82  4378     		mul r0, r0, r7

005BCF84  F85F 7320		ldr r7, [pc, #-800] ; 0x84
005BCF88  51F0     		str r0, [r6, +r7]

005BCF8A  F85F 7324		ldr r7, [pc, #-804] ; 0x84
005BCF8E  59F0     		ldr r0, [r6, +r7]

005BCF90  F85F 7328		ldr r7, [pc, #-808] ; 0x88
005BCF94  51F0     		str r0, [r6, +r7]

005BCF96  F85F 7334		ldr r7, [pc, #-820] ; 0x80
005BCF9A  59F0     		ldr r0, [r6, +r7]

005BCF9C  F85F 7334		ldr r7, [pc, #-820] ; 0x88
005BCFA0  59F7     		ldr r7, [r6, +r7]
005BCFA2  42B8     		cmp r0, r7
005BCFA4  BF38 2000		lomov r0, #0
005BCFA8  BF28 2001		hsmov r0, #1

005BCFAC  F8DF 7548		ldr r7, [pc, #+1352] ; 0x94
005BCFB0  5DF7     		ldrb r7, [r6, +r7]
005BCFB2  4338     		orr r0, r0, r7

005BCFB4  2800     		cmp r0, #0
005BCFB6  D023     		beq #70 ; 0x005BD000


005BCFBA  F85F 73CC		ldr r7, [pc, #-972] ; 0x14
005BCFBE  5DF0     		ldrb r0, [r6, +r7]

005BCFC0  2800     		cmp r0, #0
005BCFC2  D01B     		beq #54 ; 0x005BCFFC


005BCFC6  F8DF 0560		ldr r0, [pc, #+1376] ; 0x5BA0CC

005BCFCA  F85F 736C		ldr r7, [pc, #-876] ; 0x7C
005BCFCE  51F0     		str r0, [r6, +r7]

005BCFD0  F8DF 0564		ldr r0, [pc, #+1380] ; 0x5BA278

005BCFD4  F8DF 751C		ldr r7, [pc, #+1308] ; 0x90
005BCFD8  51F0     		str r0, [r6, +r7]

005BCFDA  2001     		mov r0, #1 ; 1

005BCFDC  F8DF 7514		ldr r7, [pc, #+1300] ; 0x90
005BCFE0  59F3     		ldr r3, [r6, +r7]
005BCFE2  F85F 7384		ldr r7, [pc, #-900] ; 0x7C
005BCFE6  59F2     		ldr r2, [r6, +r7]
005BCFE8  2102     		mov r1, #2 ; 2
005BCFEA  4600     		mov r0, r0
005BCFEC  F85F 4378		ldr r4, [pc, #-888] ; 0x48FE35
005BCFF0  F044 0401		orr r4, r4, #1
005BCFF4  47A0     		blx r4

005BCFF6  F85F 740C		ldr r7, [pc, #-1036] ; 0x10
005BCFFA  51F0     		str r0, [r6, +r7]

005BCFFC  2064     		mov r0, #100 ; 100
005BCFFE  7030     		strb r0, [r6]

005BD000  F85F 73E0		ldr r7, [pc, #-992] ; 0x40
005BD004  59F0     		ldr r0, [r6, +r7]

005BD006  4600     		mov r0, r0
005BD008  F8DF 4504		ldr r4, [pc, #+1284] ; 0x490C65
005BD00C  F044 0401		orr r4, r4, #1
005BD010  47A0     		blx r4

005BD012  F8DF 74DC		ldr r7, [pc, #+1244] ; 0x8C
005BD016  53F0     		strh r0, [r6, +r7]

005BD018  F8DF 74D4		ldr r7, [pc, #+1236] ; 0x8C
005BD01C  5FF0     		ldrsh r0, [r6, +r7]

005BD01E  2708     		mov r7, #8 ; 8
005BD020  42B8     		cmp r0, r7
005BD022  BF38 2000		lomov r0, #0
005BD026  BF28 2001		hsmov r0, #1

005BD02A  2800     		cmp r0, #0
005BD02C  D023     		beq #70 ; 0x005BD076


005BD030  F85F 7444		ldr r7, [pc, #-1092] ; 0x14
005BD034  5DF0     		ldrb r0, [r6, +r7]

005BD036  2800     		cmp r0, #0
005BD038  D01B     		beq #54 ; 0x005BD072


005BD03C  F8DF 04F0		ldr r0, [pc, #+1264] ; 0x5BA154

005BD040  F85F 73E4		ldr r7, [pc, #-996] ; 0x7C
005BD044  51F0     		str r0, [r6, +r7]

005BD046  F8DF 04F4		ldr r0, [pc, #+1268] ; 0x5BA2B8

005BD04A  F8DF 74A8		ldr r7, [pc, #+1192] ; 0x90
005BD04E  51F0     		str r0, [r6, +r7]

005BD050  2001     		mov r0, #1 ; 1

005BD052  F8DF 74A0		ldr r7, [pc, #+1184] ; 0x90
005BD056  59F3     		ldr r3, [r6, +r7]
005BD058  F85F 73FC		ldr r7, [pc, #-1020] ; 0x7C
005BD05C  59F2     		ldr r2, [r6, +r7]
005BD05E  2101     		mov r1, #1 ; 1
005BD060  4600     		mov r0, r0
005BD062  F85F 43EC		ldr r4, [pc, #-1004] ; 0x48FE35
005BD066  F044 0401		orr r4, r4, #1
005BD06A  47A0     		blx r4

005BD06C  F85F 7484		ldr r7, [pc, #-1156] ; 0x10
005BD070  51F0     		str r0, [r6, +r7]

005BD072  2032     		mov r0, #50 ; 50
005BD074  7030     		strb r0, [r6]

005BD076  7830     		ldrb r0, [r6]

005BD078  2800     		cmp r0, #0
005BD07A  BF18 2000		nemov r0, #0
005BD07E  BF08 2001		eqmov r0, #1

005BD082  2800     		cmp r0, #0
005BD084  D002     		beq #4 ; 0x005BD08C


005BD088  E35B     		b #1718 ; 0x005BD742


005BD08C  E357     		b #1710 ; 0x005BD73E


005BD090  4630     		mov r0, r6
005BD092  F85F 74B8		ldr r7, [pc, #-1208] ; 0x4
005BD096  19C0     		add r0, r0, r7

005BD098  F85F 743C		ldr r7, [pc, #-1084] ; 0x7C
005BD09C  51F0     		str r0, [r6, +r7]

005BD09E  2008     		mov r0, #8 ; 8

005BD0A0  F8DF 744C		ldr r7, [pc, #+1100] ; 0x8C
005BD0A4  53F0     		strh r0, [r6, +r7]

005BD0A6  F85F 7448		ldr r7, [pc, #-1096] ; 0x7C
005BD0AA  59F0     		ldr r0, [r6, +r7]

005BD0AC  F85F 748C		ldr r7, [pc, #-1164] ; 0x40
005BD0B0  59F3     		ldr r3, [r6, +r7]
005BD0B2  2201     		mov r2, #1 ; 1
005BD0B4  F8DF 7438		ldr r7, [pc, #+1080] ; 0x8C
005BD0B8  5FF1     		ldrsh r1, [r6, +r7]
005BD0BA  4600     		mov r0, r0
005BD0BC  F8DF 4448		ldr r4, [pc, #+1096] ; 0x490B9D
005BD0C0  F044 0401		orr r4, r4, #1
005BD0C4  47A0     		blx r4

005BD0C6  2708     		mov r7, #8 ; 8
005BD0C8  42B8     		cmp r0, r7
005BD0CA  BF08 2000		eqmov r0, #0
005BD0CE  BF18 2001		nemov r0, #1

005BD0D2  2800     		cmp r0, #0
005BD0D4  D008     		beq #16 ; 0x005BD0E8


005BD0D8  F8DF 7464		ldr r7, [pc, #+1124] ; 0x5BA2F8
005BD0DC  6838     		ldr r0, [r7]
005BD0DE  F85F 74F8		ldr r7, [pc, #-1272] ; 0xC
005BD0E2  51F0     		str r0, [r6, +r7]

005BD0E4  E32D     		b #1626 ; 0x005BD742


005BD0E8  F85F 74FC		ldr r7, [pc, #-1276] ; 0x14
005BD0EC  5DF0     		ldrb r0, [r6, +r7]

005BD0EE  2800     		cmp r0, #0
005BD0F0  D024     		beq #72 ; 0x005BD13C


005BD0F4  2008     		mov r0, #8 ; 8

005BD0F6  3064     		add r0, r0, #100

005BD0F8  F8DF 7400		ldr r7, [pc, #+1024] ; 0x95
005BD0FC  55F0     		strb r0, [r6, +r7]

005BD0FE  F8DF 0430		ldr r0, [pc, #+1072] ; 0x5BA154

005BD102  F85F 74A4		ldr r7, [pc, #-1188] ; 0x7C
005BD106  51F0     		str r0, [r6, +r7]

005BD108  4630     		mov r0, r6
005BD10A  F85F 7530		ldr r7, [pc, #-1328] ; 0x4
005BD10E  19C0     		add r0, r0, r7

005BD110  F8DF 73E0		ldr r7, [pc, #+992] ; 0x90
005BD114  51F0     		str r0, [r6, +r7]

005BD116  F8DF 73E4		ldr r7, [pc, #+996] ; 0x95
005BD11A  5DF0     		ldrb r0, [r6, +r7]

005BD11C  F8DF 73D4		ldr r7, [pc, #+980] ; 0x90
005BD120  59F3     		ldr r3, [r6, +r7]
005BD122  F85F 74C4		ldr r7, [pc, #-1220] ; 0x7C
005BD126  59F2     		ldr r2, [r6, +r7]
005BD128  2101     		mov r1, #1 ; 1
005BD12A  4600     		mov r0, r0
005BD12C  F85F 44B8		ldr r4, [pc, #-1208] ; 0x48FE35
005BD130  F044 0401		orr r4, r4, #1
005BD134  47A0     		blx r4

005BD136  F85F 754C		ldr r7, [pc, #-1356] ; 0x10
005BD13A  51F0     		str r0, [r6, +r7]

005BD13C  F85F 7564		ldr r7, [pc, #-1380] ; 0x4
005BD140  5DF0     		ldrb r0, [r6, +r7]

005BD142  F85F 74F0		ldr r7, [pc, #-1264] ; 0x74
005BD146  F856 C007		ldr r12, [r6, +r7]
005BD14A  F89C 7000		ldrb r7, [r12]
005BD14E  42B8     		cmp r0, r7
005BD150  BF08 2000		eqmov r0, #0
005BD154  BF18 2001		nemov r0, #1

005BD158  2800     		cmp r0, #0
005BD15A  D008     		beq #16 ; 0x005BD16E


005BD15E  F8DF 73E4		ldr r7, [pc, #+996] ; 0x5BA2FC
005BD162  6838     		ldr r0, [r7]
005BD164  F85F 7580		ldr r7, [pc, #-1408] ; 0xC
005BD168  51F0     		str r0, [r6, +r7]

005BD16A  E2EA     		b #1492 ; 0x005BD742


005BD16E  F8DF 736C		ldr r7, [pc, #+876] ; 0xA
005BD172  5BF0     		ldrh r0, [r6, +r7]

005BD174  0200     		lsl r0, r0, #8
005BD176  EA40 4010		orr r0, r0, r0, lsr #16
005BD17A  0400     		lsl r0, r0, #16
005BD17C  0C00     		lsr r0, r0, #16

005BD17E  F85F 752C		ldr r7, [pc, #-1324] ; 0x74
005BD182  F856 C007		ldr r12, [r6, +r7]
005BD186  F85F 75A0		ldr r7, [pc, #-1440] ; 0xC
005BD18A  F85C 7007		ldr r7, [r12, +r7]
005BD18E  42B8     		cmp r0, r7
005BD190  BF08 2000		eqmov r0, #0
005BD194  BF18 2001		nemov r0, #1

005BD198  2800     		cmp r0, #0
005BD19A  D008     		beq #16 ; 0x005BD1AE


005BD19E  F8DF 73A8		ldr r7, [pc, #+936] ; 0x5BA300
005BD1A2  6838     		ldr r0, [r7]
005BD1A4  F85F 75C0		ldr r7, [pc, #-1472] ; 0xC
005BD1A8  51F0     		str r0, [r6, +r7]

005BD1AA  E2CA     		b #1428 ; 0x005BD742


005BD1AE  2000     		mov r0, #0 ; 0
005BD1B0  F8DF 7334		ldr r7, [pc, #+820] ; 0x64
005BD1B4  51F0     		str r0, [r6, +r7]

005BD1B6  F85F 75D8		ldr r7, [pc, #-1496] ; 0x5
005BD1BA  5DF0     		ldrb r0, [r6, +r7]
005BD1BC  F85F 756C		ldr r7, [pc, #-1388] ; 0x74
005BD1C0  F856 C007		ldr r12, [r6, +r7]
005BD1C4  F85F 75E4		ldr r7, [pc, #-1508] ; 0x6
005BD1C8  F80C 0007		strb r0, [r12, +r7]

005BD1CC  7830     		ldrb r0, [r6]

005BD1CE  1C40     		add r0, r0, #1

005BD1D0  7030     		strb r0, [r6]

005BD1D2  E2B4     		b #1384 ; 0x005BD73E


005BD1D6  F85F 75B4		ldr r7, [pc, #-1460] ; 0x40
005BD1DA  59F0     		ldr r0, [r6, +r7]

005BD1DC  4600     		mov r0, r0
005BD1DE  F8DF 4330		ldr r4, [pc, #+816] ; 0x490C65
005BD1E2  F044 0401		orr r4, r4, #1
005BD1E6  47A0     		blx r4

005BD1E8  2800     		cmp r0, #0
005BD1EA  BF18 2000		nemov r0, #0
005BD1EE  BF08 2001		eqmov r0, #1

005BD1F2  2800     		cmp r0, #0
005BD1F4  D002     		beq #4 ; 0x005BD1FC


005BD1F8  E2A3     		b #1350 ; 0x005BD742


005BD1FC  F85F 75AC		ldr r7, [pc, #-1452] ; 0x74
005BD200  F856 C007		ldr r12, [r6, +r7]
005BD204  F85F 7620		ldr r7, [pc, #-1568] ; 0xC
005BD208  F85C 0007		ldr r0, [r12, +r7]

005BD20C  F8DF 72D8		ldr r7, [pc, #+728] ; 0x64
005BD210  59F7     		ldr r7, [r6, +r7]
005BD212  1BC0     		sub r0, r0, r7

005BD214  F85F 762C		ldr r7, [pc, #-1580] ; 0x10
005BD218  51F0     		str r0, [r6, +r7]

005BD21A  F85F 75C8		ldr r7, [pc, #-1480] ; 0x74
005BD21E  F856 C007		ldr r12, [r6, +r7]
005BD222  F8DF 72B4		ldr r7, [pc, #+692] ; 0x8
005BD226  F85C 0007		ldr r0, [r12, +r7]

005BD22A  F8DF 72BC		ldr r7, [pc, #+700] ; 0x64
005BD22E  59F7     		ldr r7, [r6, +r7]
005BD230  19C0     		add r0, r0, r7

005BD232  F85F 75D4		ldr r7, [pc, #-1492] ; 0x7C
005BD236  51F0     		str r0, [r6, +r7]

005BD238  F85F 7650		ldr r7, [pc, #-1616] ; 0x10
005BD23C  59F0     		ldr r0, [r6, +r7]

005BD23E  F8DF 72B0		ldr r7, [pc, #+688] ; 0x8C
005BD242  53F0     		strh r0, [r6, +r7]

005BD244  F85F 75E8		ldr r7, [pc, #-1512] ; 0x7C
005BD248  59F0     		ldr r0, [r6, +r7]

005BD24A  F85F 7628		ldr r7, [pc, #-1576] ; 0x40
005BD24E  59F3     		ldr r3, [r6, +r7]
005BD250  2201     		mov r2, #1 ; 1
005BD252  F8DF 729C		ldr r7, [pc, #+668] ; 0x8C
005BD256  5FF1     		ldrsh r1, [r6, +r7]
005BD258  4600     		mov r0, r0
005BD25A  F8DF 42AC		ldr r4, [pc, #+684] ; 0x490B9D
005BD25E  F044 0401		orr r4, r4, #1
005BD262  47A0     		blx r4

005BD264  F8DF 7280		ldr r7, [pc, #+640] ; 0x64
005BD268  59F7     		ldr r7, [r6, +r7]
005BD26A  19C0     		add r0, r0, r7

005BD26C  F8DF 7278		ldr r7, [pc, #+632] ; 0x64
005BD270  51F0     		str r0, [r6, +r7]

005BD272  F85F 7684		ldr r7, [pc, #-1668] ; 0x14
005BD276  5DF0     		ldrb r0, [r6, +r7]

005BD278  2800     		cmp r0, #0
005BD27A  D03D     		beq #122 ; 0x005BD2F8


005BD27E  F85F 7694		ldr r7, [pc, #-1684] ; 0x10
005BD282  59F0     		ldr r0, [r6, +r7]

005BD284  2850     		cmp r0, #80
005BD286  BF98 2000		lsmov r0, #0
005BD28A  BF88 2001		himov r0, #1

005BD28E  2800     		cmp r0, #0
005BD290  D004     		beq #8 ; 0x005BD29C


005BD294  2050     		mov r0, #80 ; 80
005BD296  F85F 76AC		ldr r7, [pc, #-1708] ; 0x10
005BD29A  51F0     		str r0, [r6, +r7]

005BD29C  F85F 76B4		ldr r7, [pc, #-1716] ; 0x10
005BD2A0  59F0     		ldr r0, [r6, +r7]

005BD2A2  3064     		add r0, r0, #100

005BD2A4  F8DF 7254		ldr r7, [pc, #+596] ; 0x95
005BD2A8  55F0     		strb r0, [r6, +r7]

005BD2AA  F8DF 0284		ldr r0, [pc, #+644] ; 0x5BA154

005BD2AE  F85F 7650		ldr r7, [pc, #-1616] ; 0x7C
005BD2B2  51F0     		str r0, [r6, +r7]

005BD2B4  F85F 7664		ldr r7, [pc, #-1636] ; 0x74
005BD2B8  F856 C007		ldr r12, [r6, +r7]
005BD2BC  F8DF 7218		ldr r7, [pc, #+536] ; 0x8
005BD2C0  F85C 0007		ldr r0, [r12, +r7]

005BD2C4  F8DF 7220		ldr r7, [pc, #+544] ; 0x64
005BD2C8  59F7     		ldr r7, [r6, +r7]
005BD2CA  19C0     		add r0, r0, r7

005BD2CC  F8DF 7224		ldr r7, [pc, #+548] ; 0x90
005BD2D0  51F0     		str r0, [r6, +r7]

005BD2D2  F8DF 7228		ldr r7, [pc, #+552] ; 0x95
005BD2D6  5DF0     		ldrb r0, [r6, +r7]

005BD2D8  F8DF 7218		ldr r7, [pc, #+536] ; 0x90
005BD2DC  59F3     		ldr r3, [r6, +r7]
005BD2DE  F85F 7680		ldr r7, [pc, #-1664] ; 0x7C
005BD2E2  59F2     		ldr r2, [r6, +r7]
005BD2E4  2101     		mov r1, #1 ; 1
005BD2E6  4600     		mov r0, r0
005BD2E8  F85F 4674		ldr r4, [pc, #-1652] ; 0x48FE35
005BD2EC  F044 0401		orr r4, r4, #1
005BD2F0  47A0     		blx r4

005BD2F2  F85F 7708		ldr r7, [pc, #-1800] ; 0x10
005BD2F6  51F0     		str r0, [r6, +r7]

005BD2F8  F8DF 71EC		ldr r7, [pc, #+492] ; 0x64
005BD2FC  59F0     		ldr r0, [r6, +r7]

005BD2FE  F85F 76AC		ldr r7, [pc, #-1708] ; 0x74
005BD302  F856 C007		ldr r12, [r6, +r7]
005BD306  F85F 7720		ldr r7, [pc, #-1824] ; 0xC
005BD30A  F85C 7007		ldr r7, [r12, +r7]
005BD30E  42B8     		cmp r0, r7
005BD310  BF28 2000		hsmov r0, #0
005BD314  BF38 2001		lomov r0, #1

005BD318  2800     		cmp r0, #0
005BD31A  D002     		beq #4 ; 0x005BD322


005BD31E  E210     		b #1056 ; 0x005BD742


005BD322  2001     		mov r0, #1 ; 1
005BD324  F85F 76D4		ldr r7, [pc, #-1748] ; 0x74
005BD328  F856 C007		ldr r12, [r6, +r7]
005BD32C  F85F 7754		ldr r7, [pc, #-1876] ; 0x4
005BD330  F80C 0007		strb r0, [r12, +r7]

005BD334  2001     		mov r0, #1 ; 1
005BD336  F85F 76E4		ldr r7, [pc, #-1764] ; 0x74
005BD33A  F856 C007		ldr r12, [r6, +r7]
005BD33E  F85F 7768		ldr r7, [pc, #-1896] ; 0x3
005BD342  F80C 0007		strb r0, [r12, +r7]

005BD346  F85F 76F4		ldr r7, [pc, #-1780] ; 0x74
005BD34A  F856 C007		ldr r12, [r6, +r7]
005BD34E  F85F 7758		ldr r7, [pc, #-1880] ; 0x18
005BD352  F85C 0007		ldr r0, [r12, +r7]

005BD356  1C40     		add r0, r0, #1

005BD358  F85F 7708		ldr r7, [pc, #-1800] ; 0x74
005BD35C  F856 C007		ldr r12, [r6, +r7]
005BD360  F85F 776C		ldr r7, [pc, #-1900] ; 0x18
005BD364  F84C 0007		str r0, [r12, +r7]

005BD368  2001     		mov r0, #1 ; 1

005BD36A  4600     		mov r0, r0
005BD36C  F85F 46F4		ldr r4, [pc, #-1780] ; 0x490519
005BD370  F044 0401		orr r4, r4, #1
005BD374  47A0     		blx r4

005BD376  F85F 7748		ldr r7, [pc, #-1864] ; 0x4C
005BD37A  51F0     		str r0, [r6, +r7]

005BD37C  2000     		mov r0, #0 ; 0
005BD37E  7030     		strb r0, [r6]

005BD380  E1DD     		b #954 ; 0x005BD73E


005BD384  4630     		mov r0, r6
005BD386  F85F 77AC		ldr r7, [pc, #-1964] ; 0x4
005BD38A  19C0     		add r0, r0, r7

005BD38C  F85F 7730		ldr r7, [pc, #-1840] ; 0x7C
005BD390  51F0     		str r0, [r6, +r7]

005BD392  F85F 7734		ldr r7, [pc, #-1844] ; 0x7C
005BD396  59F0     		ldr r0, [r6, +r7]

005BD398  2208     		mov r2, #8 ; 8
005BD39A  2100     		mov r1, #0 ; 0
005BD39C  4600     		mov r0, r0
005BD39E  F8DF 4164		ldr r4, [pc, #+356] ; 0x490795
005BD3A2  F044 0401		orr r4, r4, #1
005BD3A6  47A0     		blx r4

005BD3A8  F85F 77C0		ldr r7, [pc, #-1984] ; 0x10
005BD3AC  51F0     		str r0, [r6, +r7]

005BD3AE  2001     		mov r0, #1 ; 1

005BD3B0  4600     		mov r0, r0
005BD3B2  F85F 4738		ldr r4, [pc, #-1848] ; 0x490519
005BD3B6  F044 0401		orr r4, r4, #1
005BD3BA  47A0     		blx r4

005BD3BC  F85F 7794		ldr r7, [pc, #-1940] ; 0x48
005BD3C0  51F0     		str r0, [r6, +r7]

005BD3C2  F85F 7770		ldr r7, [pc, #-1904] ; 0x74
005BD3C6  F856 C007		ldr r12, [r6, +r7]
005BD3CA  F89C 0000		ldrb r0, [r12]
005BD3CE  F85F 77F4		ldr r7, [pc, #-2036] ; 0x4
005BD3D2  55F0     		strb r0, [r6, +r7]

005BD3D4  F85F 7784		ldr r7, [pc, #-1924] ; 0x74
005BD3D8  F856 C007		ldr r12, [r6, +r7]
005BD3DC  F85F 7800		ldr r7, [pc, #-2048] ; 0x5
005BD3E0  F81C 0007		ldrb r0, [r12, +r7]
005BD3E4  F85F 7808		ldr r7, [pc, #-2056] ; 0x5
005BD3E8  55F0     		strb r0, [r6, +r7]

005BD3EA  F85F 7798		ldr r7, [pc, #-1944] ; 0x74
005BD3EE  F856 C007		ldr r12, [r6, +r7]
005BD3F2  F85F 7804		ldr r7, [pc, #-2052] ; 0x14
005BD3F6  F85C 0007		ldr r0, [r12, +r7]

005BD3FA  F8DF 7104		ldr r7, [pc, #+260] ; 0x96
005BD3FE  53F0     		strh r0, [r6, +r7]

005BD400  F8DF 70FC		ldr r7, [pc, #+252] ; 0x96
005BD404  5BF0     		ldrh r0, [r6, +r7]

005BD406  0200     		lsl r0, r0, #8
005BD408  EA40 4010		orr r0, r0, r0, lsr #16
005BD40C  0400     		lsl r0, r0, #16
005BD40E  0C00     		lsr r0, r0, #16

005BD410  F8DF 70C8		ldr r7, [pc, #+200] ; 0xA
005BD414  53F0     		strh r0, [r6, +r7]

005BD416  4630     		mov r0, r6
005BD418  F85F 7840		ldr r7, [pc, #-2112] ; 0x4
005BD41C  19C0     		add r0, r0, r7

005BD41E  F85F 77C0		ldr r7, [pc, #-1984] ; 0x7C
005BD422  51F0     		str r0, [r6, +r7]

005BD424  2008     		mov r0, #8 ; 8

005BD426  F8DF 70C8		ldr r7, [pc, #+200] ; 0x8C
005BD42A  53F0     		strh r0, [r6, +r7]

005BD42C  F85F 77D0		ldr r7, [pc, #-2000] ; 0x7C
005BD430  59F0     		ldr r0, [r6, +r7]

005BD432  F85F 7810		ldr r7, [pc, #-2064] ; 0x40
005BD436  59F3     		ldr r3, [r6, +r7]
005BD438  2201     		mov r2, #1 ; 1
005BD43A  F8DF 70B4		ldr r7, [pc, #+180] ; 0x8C
005BD43E  5FF1     		ldrsh r1, [r6, +r7]
005BD440  4600     		mov r0, r0
005BD442  F8DF 40C8		ldr r4, [pc, #+200] ; 0x490C01
005BD446  F044 0401		orr r4, r4, #1
005BD44A  47A0     		blx r4

005BD44C  2708     		mov r7, #8 ; 8
005BD44E  42B8     		cmp r0, r7
005BD450  BF08 2000		eqmov r0, #0
005BD454  BF18 2001		nemov r0, #1

005BD458  2800     		cmp r0, #0
005BD45A  D008     		beq #16 ; 0x005BD46E


005BD45E  F8DF 70EC		ldr r7, [pc, #+236] ; 0x5BA304
005BD462  6838     		ldr r0, [r7]
005BD464  F85F 7880		ldr r7, [pc, #-2176] ; 0xC
005BD468  51F0     		str r0, [r6, +r7]

005BD46A  E16A     		b #724 ; 0x005BD742


005BD46E  F85F 7880		ldr r7, [pc, #-2176] ; 0x14
005BD472  5DF0     		ldrb r0, [r6, +r7]

005BD474  2800     		cmp r0, #0
005BD476  D024     		beq #72 ; 0x005BD4C2


005BD47A  2008     		mov r0, #8 ; 8

005BD47C  3064     		add r0, r0, #100

005BD47E  F8DF 707C		ldr r7, [pc, #+124] ; 0x95
005BD482  55F0     		strb r0, [r6, +r7]

005BD484  F8DF 00A0		ldr r0, [pc, #+160] ; 0x5BA0CC

005BD488  F85F 782C		ldr r7, [pc, #-2092] ; 0x7C
005BD48C  51F0     		str r0, [r6, +r7]

005BD48E  4630     		mov r0, r6
005BD490  F85F 78B8		ldr r7, [pc, #-2232] ; 0x4
005BD494  19C0     		add r0, r0, r7

005BD496  F8DF 705C		ldr r7, [pc, #+92] ; 0x90
005BD49A  51F0     		str r0, [r6, +r7]

005BD49C  F8DF 705C		ldr r7, [pc, #+92] ; 0x95
005BD4A0  5DF0     		ldrb r0, [r6, +r7]

005BD4A2  F8DF 7050		ldr r7, [pc, #+80] ; 0x90
005BD4A6  59F3     		ldr r3, [r6, +r7]
005BD4A8  F85F 784C		ldr r7, [pc, #-2124] ; 0x7C
005BD4AC  59F2     		ldr r2, [r6, +r7]
005BD4AE  2102     		mov r1, #2 ; 2
005BD4B0  4600     		mov r0, r0
005BD4B2  F85F 483C		ldr r4, [pc, #-2108] ; 0x48FE35
005BD4B6  F044 0401		orr r4, r4, #1
005BD4BA  47A0     		blx r4

005BD4BC  F85F 78D4		ldr r7, [pc, #-2260] ; 0x10
005BD4C0  51F0     		str r0, [r6, +r7]

005BD4C2  2000     		mov r0, #0 ; 0
005BD4C4  F8DF 7020		ldr r7, [pc, #+32] ; 0x64
005BD4C8  51F0     		str r0, [r6, +r7]

005BD4CA  7830     		ldrb r0, [r6]

005BD4CC  1C40     		add r0, r0, #1

005BD4CE  7030     		strb r0, [r6]

005BD4D0  E03E     		b #124

005BD4D4  00000002		; 0x00000002
005BD4D8  00000008		; 0x00000008
005BD4DC  0000000A		; 0x0000000A
005BD4E0  00000020		; 0x00000020
005BD4E4  00000054		; 0x00000054
005BD4E8  00000064		; 0x00000064
005BD4EC  00000068		; 0x00000068
005BD4F0  0000008C		; 0x0000008C
005BD4F4  00000090		; 0x00000090
005BD4F8  00000094		; 0x00000094
005BD4FC  00000095		; 0x00000095
005BD500  00000096		; 0x00000096
005BD504  00490795		; 0x00490795
005BD508  00490B9D		; 0x00490B9D
005BD50C  00490C01		; 0x00490C01
005BD510  00490C65		; 0x00490C65
005BD514  00490CBD		; 0x00490CBD
005BD518  00490D6D		; 0x00490D6D
005BD51C  004A4509		; 0x004A4509
005BD520  004A4585		; 0x004A4585
005BD524  005BA0C8		; 0x005BA0C8
005BD528  005BA0CC		; 0x005BA0CC
005BD52C  005BA110		; 0x005BA110
005BD530  005BA154		; 0x005BA154
005BD534  005BA238		; 0x005BA238
005BD538  005BA278		; 0x005BA278
005BD53C  005BA2B8		; 0x005BA2B8
005BD540  005BA2F8		; 0x005BA2F8
005BD544  005BA2FC		; 0x005BA2FC
005BD548  005BA300		; 0x005BA300
005BD54C  005BA304		; 0x005BA304

005BD550  E0F5     		b #490 ; 0x005BD73E


005BD554  F85F 7934		ldr r7, [pc, #-2356] ; 0x40
005BD558  59F0     		ldr r0, [r6, +r7]

005BD55A  4600     		mov r0, r0
005BD55C  F85F 404C		ldr r4, [pc, #-76] ; 0x490CBD
005BD560  F044 0401		orr r4, r4, #1
005BD564  47A0     		blx r4

005BD566  2800     		cmp r0, #0
005BD568  BF18 2000		nemov r0, #0
005BD56C  BF08 2001		eqmov r0, #1

005BD570  2800     		cmp r0, #0
005BD572  D002     		beq #4 ; 0x005BD57A


005BD576  E0E4     		b #456 ; 0x005BD742


005BD57A  F85F 7928		ldr r7, [pc, #-2344] ; 0x74
005BD57E  F856 C007		ldr r12, [r6, +r7]
005BD582  F85F 7994		ldr r7, [pc, #-2452] ; 0x14
005BD586  F85C 0007		ldr r0, [r12, +r7]

005BD58A  F85F 70A4		ldr r7, [pc, #-164] ; 0x64
005BD58E  59F7     		ldr r7, [r6, +r7]
005BD590  1BC0     		sub r0, r0, r7

005BD592  F85F 79A8		ldr r7, [pc, #-2472] ; 0x10
005BD596  51F0     		str r0, [r6, +r7]

005BD598  F85F 7978		ldr r7, [pc, #-2424] ; 0x40
005BD59C  59F0     		ldr r0, [r6, +r7]

005BD59E  4600     		mov r0, r0
005BD5A0  F85F 4090		ldr r4, [pc, #-144] ; 0x490CBD
005BD5A4  F044 0401		orr r4, r4, #1
005BD5A8  47A0     		blx r4

005BD5AA  F85F 70BC		ldr r7, [pc, #-188] ; 0x8C
005BD5AE  53F0     		strh r0, [r6, +r7]

005BD5B0  F85F 70C4		ldr r7, [pc, #-196] ; 0x8C
005BD5B4  5FF0     		ldrsh r0, [r6, +r7]

005BD5B6  F85F 79CC		ldr r7, [pc, #-2508] ; 0x10
005BD5BA  59F7     		ldr r7, [r6, +r7]
005BD5BC  42B8     		cmp r0, r7
005BD5BE  BF28 2000		hsmov r0, #0
005BD5C2  BF38 2001		lomov r0, #1

005BD5C6  2800     		cmp r0, #0
005BD5C8  D00C     		beq #24 ; 0x005BD5E4


005BD5CC  F85F 79AC		ldr r7, [pc, #-2476] ; 0x40
005BD5D0  59F0     		ldr r0, [r6, +r7]

005BD5D2  4600     		mov r0, r0
005BD5D4  F85F 40C4		ldr r4, [pc, #-196] ; 0x490CBD
005BD5D8  F044 0401		orr r4, r4, #1
005BD5DC  47A0     		blx r4

005BD5DE  F85F 79F4		ldr r7, [pc, #-2548] ; 0x10
005BD5E2  51F0     		str r0, [r6, +r7]

005BD5E4  F85F 7994		ldr r7, [pc, #-2452] ; 0x74
005BD5E8  F856 C007		ldr r12, [r6, +r7]
005BD5EC  F85F 7A04		ldr r7, [pc, #-2564] ; 0x10
005BD5F0  F85C 0007		ldr r0, [r12, +r7]

005BD5F4  F85F 7110		ldr r7, [pc, #-272] ; 0x64
005BD5F8  59F7     		ldr r7, [r6, +r7]
005BD5FA  19C0     		add r0, r0, r7

005BD5FC  F85F 79A0		ldr r7, [pc, #-2464] ; 0x7C
005BD600  51F0     		str r0, [r6, +r7]

005BD602  F85F 7A18		ldr r7, [pc, #-2584] ; 0x10
005BD606  59F0     		ldr r0, [r6, +r7]

005BD608  F85F 711C		ldr r7, [pc, #-284] ; 0x8C
005BD60C  53F0     		strh r0, [r6, +r7]

005BD60E  F85F 79B0		ldr r7, [pc, #-2480] ; 0x7C
005BD612  59F0     		ldr r0, [r6, +r7]

005BD614  F85F 79F4		ldr r7, [pc, #-2548] ; 0x40
005BD618  59F3     		ldr r3, [r6, +r7]
005BD61A  2201     		mov r2, #1 ; 1
005BD61C  F85F 7130		ldr r7, [pc, #-304] ; 0x8C
005BD620  5FF1     		ldrsh r1, [r6, +r7]
005BD622  4600     		mov r0, r0
005BD624  F85F 411C		ldr r4, [pc, #-284] ; 0x490C01
005BD628  F044 0401		orr r4, r4, #1
005BD62C  47A0     		blx r4

005BD62E  F85F 7148		ldr r7, [pc, #-328] ; 0x64
005BD632  59F7     		ldr r7, [r6, +r7]
005BD634  19C0     		add r0, r0, r7

005BD636  F85F 7150		ldr r7, [pc, #-336] ; 0x64
005BD63A  51F0     		str r0, [r6, +r7]

005BD63C  F85F 7A50		ldr r7, [pc, #-2640] ; 0x14
005BD640  5DF0     		ldrb r0, [r6, +r7]

005BD642  2800     		cmp r0, #0
005BD644  D03D     		beq #122 ; 0x005BD6C2


005BD648  F85F 7A60		ldr r7, [pc, #-2656] ; 0x10
005BD64C  59F0     		ldr r0, [r6, +r7]

005BD64E  2850     		cmp r0, #80
005BD650  BF98 2000		lsmov r0, #0
005BD654  BF88 2001		himov r0, #1

005BD658  2800     		cmp r0, #0
005BD65A  D004     		beq #8 ; 0x005BD666


005BD65E  2050     		mov r0, #80 ; 80
005BD660  F85F 7A78		ldr r7, [pc, #-2680] ; 0x10
005BD664  51F0     		str r0, [r6, +r7]

005BD666  F85F 7A7C		ldr r7, [pc, #-2684] ; 0x10
005BD66A  59F0     		ldr r0, [r6, +r7]

005BD66C  3064     		add r0, r0, #100

005BD66E  F85F 7174		ldr r7, [pc, #-372] ; 0x95
005BD672  55F0     		strb r0, [r6, +r7]

005BD674  F85F 0150		ldr r0, [pc, #-336] ; 0x5BA0CC

005BD678  F85F 7A1C		ldr r7, [pc, #-2588] ; 0x7C
005BD67C  51F0     		str r0, [r6, +r7]

005BD67E  F85F 7A2C		ldr r7, [pc, #-2604] ; 0x74
005BD682  F856 C007		ldr r12, [r6, +r7]
005BD686  F85F 7A9C		ldr r7, [pc, #-2716] ; 0x10
005BD68A  F85C 0007		ldr r0, [r12, +r7]

005BD68E  F85F 71A8		ldr r7, [pc, #-424] ; 0x64
005BD692  59F7     		ldr r7, [r6, +r7]
005BD694  19C0     		add r0, r0, r7

005BD696  F85F 71A4		ldr r7, [pc, #-420] ; 0x90
005BD69A  51F0     		str r0, [r6, +r7]

005BD69C  F85F 71A4		ldr r7, [pc, #-420] ; 0x95
005BD6A0  5DF0     		ldrb r0, [r6, +r7]

005BD6A2  F85F 71B0		ldr r7, [pc, #-432] ; 0x90
005BD6A6  59F3     		ldr r3, [r6, +r7]
005BD6A8  F85F 7A4C		ldr r7, [pc, #-2636] ; 0x7C
005BD6AC  59F2     		ldr r2, [r6, +r7]
005BD6AE  2102     		mov r1, #2 ; 2
005BD6B0  4600     		mov r0, r0
005BD6B2  F85F 4A3C		ldr r4, [pc, #-2620] ; 0x48FE35
005BD6B6  F044 0401		orr r4, r4, #1
005BD6BA  47A0     		blx r4

005BD6BC  F85F 7AD4		ldr r7, [pc, #-2772] ; 0x10
005BD6C0  51F0     		str r0, [r6, +r7]

005BD6C2  F85F 71DC		ldr r7, [pc, #-476] ; 0x64
005BD6C6  59F0     		ldr r0, [r6, +r7]

005BD6C8  F85F 7A78		ldr r7, [pc, #-2680] ; 0x74
005BD6CC  F856 C007		ldr r12, [r6, +r7]
005BD6D0  F85F 7AE4		ldr r7, [pc, #-2788] ; 0x14
005BD6D4  F85C 7007		ldr r7, [r12, +r7]
005BD6D8  42B8     		cmp r0, r7
005BD6DA  BF28 2000		hsmov r0, #0
005BD6DE  BF38 2001		lomov r0, #1

005BD6E2  2800     		cmp r0, #0
005BD6E4  D002     		beq #4 ; 0x005BD6EC


005BD6E8  E02B     		b #86 ; 0x005BD742


005BD6EC  F85F 7ACC		ldr r7, [pc, #-2764] ; 0x40
005BD6F0  59F0     		ldr r0, [r6, +r7]

005BD6F2  4600     		mov r0, r0
005BD6F4  F8DF 4050		ldr r4, [pc, #+80] ; 0x490E75
005BD6F8  F044 0401		orr r4, r4, #1
005BD6FC  47A0     		blx r4

005BD6FE  F85F 7B14		ldr r7, [pc, #-2836] ; 0x10
005BD702  51F0     		str r0, [r6, +r7]

005BD704  2000     		mov r0, #0 ; 0
005BD706  F85F 7224		ldr r7, [pc, #-548] ; 0x54
005BD70A  55F0     		strb r0, [r6, +r7]

005BD70C  2001     		mov r0, #1 ; 1
005BD70E  F85F 7224		ldr r7, [pc, #-548] ; 0x68
005BD712  55F0     		strb r0, [r6, +r7]

005BD714  2000     		mov r0, #0 ; 0
005BD716  F85F 7AC4		ldr r7, [pc, #-2756] ; 0x74
005BD71A  F856 C007		ldr r12, [r6, +r7]
005BD71E  F85F 724C		ldr r7, [pc, #-588] ; 0x2
005BD722  F80C 0007		strb r0, [r12, +r7]

005BD726  2000     		mov r0, #0 ; 0
005BD728  7030     		strb r0, [r6]

005BD72A  E008     		b #16 ; 0x005BD73E


005BD72E  F8DF 701C		ldr r7, [pc, #+28] ; 0x5BA308
005BD732  6838     		ldr r0, [r7]
005BD734  F85F 7B50		ldr r7, [pc, #-2896] ; 0xC
005BD738  51F0     		str r0, [r6, +r7]

005BD73A  E002     		b #4 ; 0x005BD742


005BD73E  F7FF BB04		b #-2552 ; 0x005BCD4A

005BD742  E8BD 4040		ldmia sp!, { r6, lr }

005BD746  4770     		bx lr

005BD748  00490E75		; 0x00490E75
005BD74C  005BA308		; 0x005BA308


Frame allocation:

	0000       : VAR CaseNr
	0004       : STRU FHd
	000C       : VAR ErrorNr
	0010       : VAR i
	0014 bit  0: VAR ISpyOn
	0015       : VAR SBSize
	0018       : VAR SpyBuffer
	001C       : FB TCPClient
	0044       : VAR TimeBf
	0050       : VAR CBuffer
	0054 bit  0: VAR TxData
	0058       : VAR Ptr
	0060       : VAR TxLength
	0064       : VAR Length
	0068 bit  0: VAR TxTCheck
	0069 bit  0: VAR Enable
	006A bit  0: VAR SpyOn
	006C       : VAR SAddress
	0070       : VAR SPort
	0074       : STRU DEDefs
	0078 bit  0: VAR Enabled
	0079 bit  0: VAR Fault

END_FUNCTION_BLOCK
**************************************************
	List program: ST_TCPDEClient
**************************************************

PROGRAM ST_TCPDEClient

        VAR
TCPClient : TCPDataExchClient;	{ DE:"TCP data exchange client" }
TxBuffer : ARRAY[ 0..7 ] OF BYTE;	{ DE:"Tx buffer address" }
RxBuffer : ARRAY[ 0..7 ] OF BYTE;	{ DE:"Rx buffer address" }
DiAcq : SysGetPhrDI;	{ DE:"Digital input acquisition" }
DoMng : SysSetPhrDO;	{ DE:"Digital output management" }
DEDefs : TCPDEXCHNODEDEFS;	{ DE:"Data exchange node definitions" }
	END_VAR

END_PROGRAM

005BD750  E92D 4DF0		stmdb sp!, { r4, r5, r6, r7, r8, r10, fp, lr }

#0		{SRC:ST_TCPDEClient}
#1
#2
#3
#4
#5		{L:12}
(*) UNDEF
005BD754  F8DF 7174		ldr r7, [pc, #+372] ; 0x20412E51
005BD758  7838     		ldrb r0, [r7]

#6		{L:12}
(-) BOOL
005BD75A  2800     		cmp r0, #0
005BD75C  D036     		beq #108 ; 0x005BD7CC


#7
#8
#9
#10
#11		{L:16}
(*) BOOL
005BD760  2001     		mov r0, #1 ; 1
005BD762  F8DF 7108		ldr r7, [pc, #+264] ; 0x20410E34
005BD766  7038     		strb r0, [r7]

#12
#13
#14		{L:17}
(*) USINT
005BD768  2001     		mov r0, #1 ; 1
005BD76A  F8DF 7104		ldr r7, [pc, #+260] ; 0x20410E35
005BD76E  7038     		strb r0, [r7]

#15
#16
#17		{L:18}
(*) BOOL
005BD770  F8DF 0114		ldr r0, [pc, #+276] ; 0x20410E5C

#18		{L:18}
(*) DWORD
005BD774  F8DF 7108		ldr r7, [pc, #+264] ; 0x20410E44
005BD778  6038     		str r0, [r7]

#19
#20
#21		{L:19}
(*) DWORD
005BD77A  2008     		mov r0, #8 ; 8
005BD77C  F8DF 7104		ldr r7, [pc, #+260] ; 0x20410E48
005BD780  6038     		str r0, [r7]

#22
#23
#24		{L:20}
(*) UDINT
005BD782  F8DF 0108		ldr r0, [pc, #+264] ; 0x20410E64

#25		{L:20}
(*) DWORD
005BD786  F8DF 70F0		ldr r7, [pc, #+240] ; 0x20410E3C
005BD78A  6038     		str r0, [r7]

#26
#27
#28		{L:21}
(*) DWORD
005BD78C  2008     		mov r0, #8 ; 8
005BD78E  F8DF 70EC		ldr r7, [pc, #+236] ; 0x20410E40
005BD792  6038     		str r0, [r7]

#29
#30
#31		{L:22}
(*) UDINT
005BD794  2005     		mov r0, #5 ; 5
005BD796  F8DF 70DC		ldr r7, [pc, #+220] ; 0x20410E39
005BD79A  7038     		strb r0, [r7]

#32
#33
#34		{L:24}
(*) USINT
005BD79C  2001     		mov r0, #1 ; 1
005BD79E  F8DF 70F4		ldr r7, [pc, #+244] ; 0x20410ED5
005BD7A2  7038     		strb r0, [r7]

#35
#36
#37		{L:25}
(*) BOOL
005BD7A4  2001     		mov r0, #1 ; 1
005BD7A6  F8DF 70F0		ldr r7, [pc, #+240] ; 0x20410ED6
005BD7AA  7038     		strb r0, [r7]

#38
#39
#40		{L:27}
(*) BOOL
005BD7AC  F8DF 00B0		ldr r0, [pc, #+176] ; 0x5BA32C

#41		{L:27}
(*) DWORD
005BD7B0  F8DF 70E8		ldr r7, [pc, #+232] ; 0x20410ED8
005BD7B4  6038     		str r0, [r7]

#42
#43
#44		{L:28}
(*) DWORD
005BD7B6  F8DF 70AC		ldr r7, [pc, #+172] ; 0x5BA33A
005BD7BA  8838     		ldrh r0, [r7]
005BD7BC  F8DF 70E0		ldr r7, [pc, #+224] ; 0x20410EDC
005BD7C0  8038     		strh r0, [r7]

#45
#46
#47		{L:29}
(*) UINT
005BD7C2  F8DF 00A8		ldr r0, [pc, #+168] ; 0x20410E34

#48		{L:29}
(*) DWORD
005BD7C6  F8DF 70DC		ldr r7, [pc, #+220] ; 0x20410EE0
005BD7CA  6038     		str r0, [r7]

#49
#50
#51
#52
#53
#54		{L:37}
(*) DWORD
005BD7CC  E92D 0021		stmdb sp!, { r0, r5 }
005BD7D0  F8DF 70BC		ldr r7, [pc, #+188] ; 0x20410E6C
005BD7D4  463D     		mov r5, r7
005BD7D6  F8DF 4090		ldr r4, [pc, #+144] ; 0x5BC3CC
005BD7DA  F044 0401		orr r4, r4, #1
005BD7DE  47A0     		blx r4
005BD7E0  E8BD 0021		ldmia sp!, { r0, r5 }

#55
#56
#57		{L:44}
(*) DWORD
005BD7E4  20FF     		mov r0, #255 ; 255
005BD7E6  F8DF 70C4		ldr r7, [pc, #+196] ; 0x20410F0C
005BD7EA  7038     		strb r0, [r7]

#58
#59
#60		{L:45}
(*) USINT
005BD7EC  2001     		mov r0, #1 ; 1
005BD7EE  F8DF 70C0		ldr r7, [pc, #+192] ; 0x20410F0D
005BD7F2  7038     		strb r0, [r7]

#61
#62
#63		{L:46}
(*) USINT
005BD7F4  E92D 0021		stmdb sp!, { r0, r5 }
005BD7F8  F8DF 70AC		ldr r7, [pc, #+172] ; 0x20410F04
005BD7FC  4638     		mov r0, r7
005BD7FE  F8DF 4058		ldr r4, [pc, #+88] ; 0x48D84D
005BD802  F044 0401		orr r4, r4, #1
005BD806  47A0     		blx r4
005BD808  E8BD 0021		ldmia sp!, { r0, r5 }

#64
#65
#66		{L:47}
(*) UNDEF
005BD80C  F8DF 70A4		ldr r7, [pc, #+164] ; 0x20410F10
005BD810  6838     		ldr r0, [r7]

#67		{L:47}
(-) DWORD
#68		{L:47}
(*) BYTE
005BD812  F8DF 7074		ldr r7, [pc, #+116] ; 0x20410E5C
005BD816  7038     		strb r0, [r7]

#69
#70
#71		{L:51}
(*) BYTE
005BD818  20FF     		mov r0, #255 ; 255
005BD81A  F8DF 70A0		ldr r7, [pc, #+160] ; 0x20410F1C
005BD81E  7038     		strb r0, [r7]

#72
#73
#74		{L:52}
(*) USINT
005BD820  2001     		mov r0, #1 ; 1
005BD822  F8DF 709C		ldr r7, [pc, #+156] ; 0x20410F1D
005BD826  7038     		strb r0, [r7]

#75
#76
#77		{L:53}
(*) USINT
005BD828  F8DF 7060		ldr r7, [pc, #+96] ; 0x20410E64
005BD82C  7838     		ldrb r0, [r7]
005BD82E  F8DF 7094		ldr r7, [pc, #+148] ; 0x20410F20
005BD832  6038     		str r0, [r7]

#78
#79
#80		{L:54}
(*) BYTE
005BD834  2000     		mov r0, #0 ; 0
005BD836  F8DF 7090		ldr r7, [pc, #+144] ; 0x20410F24
005BD83A  6038     		str r0, [r7]

#81
#82
#83		{L:55}
(*) DWORD
005BD83C  E92D 0021		stmdb sp!, { r0, r5 }
005BD840  F8DF 7074		ldr r7, [pc, #+116] ; 0x20410F14
005BD844  4638     		mov r0, r7
005BD846  F8DF 4014		ldr r4, [pc, #+20] ; 0x48E425
005BD84A  F044 0401		orr r4, r4, #1
005BD84E  47A0     		blx r4
005BD850  E8BD 0021		ldmia sp!, { r0, r5 }

005BD854  E03B     		b #118

005BD858  0048D84D		; 0x0048D84D
005BD85C  0048E425		; 0x0048E425
005BD860  005BA32C		; 0x005BA32C
005BD864  005BA33A		; 0x005BA33A
005BD868  005BC3CC		; 0x005BC3CC
005BD86C  20410E34		; 0x20410E34
005BD870  20410E35		; 0x20410E35
005BD874  20410E39		; 0x20410E39
005BD878  20410E3C		; 0x20410E3C
005BD87C  20410E40		; 0x20410E40
005BD880  20410E44		; 0x20410E44
005BD884  20410E48		; 0x20410E48
005BD888  20410E5C		; 0x20410E5C
005BD88C  20410E64		; 0x20410E64
005BD890  20410E6C		; 0x20410E6C
005BD894  20410ED5		; 0x20410ED5
005BD898  20410ED6		; 0x20410ED6
005BD89C  20410ED8		; 0x20410ED8
005BD8A0  20410EDC		; 0x20410EDC
005BD8A4  20410EE0		; 0x20410EE0
005BD8A8  20410F04		; 0x20410F04
005BD8AC  20410F0C		; 0x20410F0C
005BD8B0  20410F0D		; 0x20410F0D
005BD8B4  20410F10		; 0x20410F10
005BD8B8  20410F14		; 0x20410F14
005BD8BC  20410F1C		; 0x20410F1C
005BD8C0  20410F1D		; 0x20410F1D
005BD8C4  20410F20		; 0x20410F20
005BD8C8  20410F24		; 0x20410F24
005BD8CC  20412E51		; 0x20412E51

END_PROGRAM
**************************************************
	List program: ST_TCPDEServer
**************************************************

PROGRAM ST_TCPDEServer

        VAR
TCPServer : TCPDataExchServer;	{ DE:"TCP data exchange server" }
DoMng : SysSetPhrDO;	{ DE:"Digital output management" }
DiAcq : SysGetPhrDI;	{ DE:"Digital input acquisition" }
DEDefs : ARRAY[ 0..1 ] OF TCPDEXCHNODEDEFS;	{ DE:"Data exchange node definitions" }
C2TxBuffer : ARRAY[ 0..7 ] OF BYTE;	{ DE:"Tx buffer (Client 2)" }
C2RxBuffer : ARRAY[ 0..7 ] OF BYTE;	{ DE:"Rx buffer (Client 2)" }
C1TxBuffer : ARRAY[ 0..7 ] OF BYTE;	{ DE:"Tx buffer (Client 1)" }
C1RxBuffer : ARRAY[ 0..7 ] OF BYTE;	{ DE:"Rx buffer (Client 1)" }
	END_VAR

END_PROGRAM

#0		{SRC:ST_TCPDEServer}
#1
#2
#3
#4
#5		{L:12}
(*) UNDEF
005BD8D0  F8DF 71D0		ldr r7, [pc, #+464] ; 0x20412E51
005BD8D4  7838     		ldrb r0, [r7]

#6		{L:12}
(-) BOOL
005BD8D6  2800     		cmp r0, #0
005BD8D8  D053     		beq #166 ; 0x005BD982


#7
#8
#9
#10
#11		{L:16}
(*) BOOL
005BD8DC  2001     		mov r0, #1 ; 1
005BD8DE  F8DF 7140		ldr r7, [pc, #+320] ; 0x20410F2C
005BD8E2  7038     		strb r0, [r7]

#12
#13
#14		{L:17}
(*) USINT
005BD8E4  2001     		mov r0, #1 ; 1
005BD8E6  F8DF 713C		ldr r7, [pc, #+316] ; 0x20410F2D
005BD8EA  7038     		strb r0, [r7]

#15
#16
#17		{L:18}
(*) BOOL
005BD8EC  F8DF 0168		ldr r0, [pc, #+360] ; 0x20410F7C

#18		{L:18}
(*) DWORD
005BD8F0  F8DF 7140		ldr r7, [pc, #+320] ; 0x20410F3C
005BD8F4  6038     		str r0, [r7]

#19
#20
#21		{L:19}
(*) DWORD
005BD8F6  2008     		mov r0, #8 ; 8
005BD8F8  F8DF 713C		ldr r7, [pc, #+316] ; 0x20410F40
005BD8FC  6038     		str r0, [r7]

#22
#23
#24		{L:20}
(*) UDINT
005BD8FE  F8DF 015C		ldr r0, [pc, #+348] ; 0x20410F84

#25		{L:20}
(*) DWORD
005BD902  F8DF 7128		ldr r7, [pc, #+296] ; 0x20410F34
005BD906  6038     		str r0, [r7]

#26
#27
#28		{L:21}
(*) DWORD
005BD908  2008     		mov r0, #8 ; 8
005BD90A  F8DF 7124		ldr r7, [pc, #+292] ; 0x20410F38
005BD90E  6038     		str r0, [r7]

#29
#30
#31		{L:22}
(*) UDINT
005BD910  200A     		mov r0, #10 ; 10
005BD912  F8DF 7114		ldr r7, [pc, #+276] ; 0x20410F31
005BD916  7038     		strb r0, [r7]

#32
#33
#34		{L:26}
(*) USINT
005BD918  2002     		mov r0, #2 ; 2
005BD91A  F8DF 7120		ldr r7, [pc, #+288] ; 0x20410F54
005BD91E  7038     		strb r0, [r7]

#35
#36
#37		{L:27}
(*) USINT
005BD920  2001     		mov r0, #1 ; 1
005BD922  F8DF 711C		ldr r7, [pc, #+284] ; 0x20410F55
005BD926  7038     		strb r0, [r7]

#38
#39
#40		{L:28}
(*) BOOL
005BD928  F8DF 0134		ldr r0, [pc, #+308] ; 0x20410F8C

#41		{L:28}
(*) DWORD
005BD92C  F8DF 7120		ldr r7, [pc, #+288] ; 0x20410F64
005BD930  6038     		str r0, [r7]

#42
#43
#44		{L:29}
(*) DWORD
005BD932  2008     		mov r0, #8 ; 8
005BD934  F8DF 711C		ldr r7, [pc, #+284] ; 0x20410F68
005BD938  6038     		str r0, [r7]

#45
#46
#47		{L:30}
(*) UDINT
005BD93A  F8DF 0128		ldr r0, [pc, #+296] ; 0x20410F94

#48		{L:30}
(*) DWORD
005BD93E  F8DF 7108		ldr r7, [pc, #+264] ; 0x20410F5C
005BD942  6038     		str r0, [r7]

#49
#50
#51		{L:31}
(*) DWORD
005BD944  2008     		mov r0, #8 ; 8
005BD946  F8DF 7104		ldr r7, [pc, #+260] ; 0x20410F60
005BD94A  6038     		str r0, [r7]

#52
#53
#54		{L:32}
(*) UDINT
005BD94C  200A     		mov r0, #10 ; 10
005BD94E  F8DF 70F4		ldr r7, [pc, #+244] ; 0x20410F59
005BD952  7038     		strb r0, [r7]

#55
#56
#57		{L:36}
(*) USINT
005BD954  2001     		mov r0, #1 ; 1
005BD956  F8DF 7114		ldr r7, [pc, #+276] ; 0x20411015
005BD95A  7038     		strb r0, [r7]

#58
#59
#60		{L:37}
(*) BOOL
005BD95C  2001     		mov r0, #1 ; 1
005BD95E  F8DF 7110		ldr r7, [pc, #+272] ; 0x20411016
005BD962  7038     		strb r0, [r7]

#61
#62
#63		{L:38}
(*) BOOL
005BD964  2002     		mov r0, #2 ; 2
005BD966  F8DF 7110		ldr r7, [pc, #+272] ; 0x2041101A
005BD96A  7038     		strb r0, [r7]

#64
#65
#66		{L:39}
(*) USINT
005BD96C  F8DF 70A8		ldr r7, [pc, #+168] ; 0x5BA33A
005BD970  8838     		ldrh r0, [r7]
005BD972  F8DF 7100		ldr r7, [pc, #+256] ; 0x20411018
005BD976  8038     		strh r0, [r7]

#67
#68
#69		{L:40}
(*) UINT
005BD978  F8DF 00A4		ldr r0, [pc, #+164] ; 0x20410F2C

#70		{L:40}
(*) DWORD
005BD97C  F8DF 70FC		ldr r7, [pc, #+252] ; 0x2041101C
005BD980  6038     		str r0, [r7]

#71
#72
#73
#74
#75
#76		{L:48}
(*) DWORD
005BD982  E92D 0021		stmdb sp!, { r0, r5 }
005BD986  F8DF 70E0		ldr r7, [pc, #+224] ; 0x20410F9C
005BD98A  463D     		mov r5, r7
005BD98C  F8DF 408C		ldr r4, [pc, #+140] ; 0x5BBA80
005BD990  F044 0401		orr r4, r4, #1
005BD994  47A0     		blx r4
005BD996  E8BD 0021		ldmia sp!, { r0, r5 }

#77
#78
#79		{L:55}
(*) DWORD
005BD99A  20FF     		mov r0, #255 ; 255
005BD99C  F8DF 70E4		ldr r7, [pc, #+228] ; 0x20411034
005BD9A0  7038     		strb r0, [r7]

#80
#81
#82		{L:56}
(*) USINT
005BD9A2  2001     		mov r0, #1 ; 1
005BD9A4  F8DF 70E0		ldr r7, [pc, #+224] ; 0x20411035
005BD9A8  7038     		strb r0, [r7]

#83
#84
#85		{L:57}
(*) USINT
005BD9AA  E92D 0021		stmdb sp!, { r0, r5 }
005BD9AE  F8DF 70D0		ldr r7, [pc, #+208] ; 0x2041102C
005BD9B2  4638     		mov r0, r7
005BD9B4  F8DF 4058		ldr r4, [pc, #+88] ; 0x48D84D
005BD9B8  F044 0401		orr r4, r4, #1
005BD9BC  47A0     		blx r4
005BD9BE  E8BD 0021		ldmia sp!, { r0, r5 }

#86
#87
#88		{L:58}
(*) UNDEF
005BD9C2  F8DF 70C8		ldr r7, [pc, #+200] ; 0x20411038
005BD9C6  6838     		ldr r0, [r7]

#89		{L:58}
(-) DWORD
#90		{L:58}
(*) BYTE
005BD9C8  F8DF 708C		ldr r7, [pc, #+140] ; 0x20410F7C
005BD9CC  7038     		strb r0, [r7]

#91
#92
#93		{L:62}
(*) BYTE
005BD9CE  20FF     		mov r0, #255 ; 255
005BD9D0  F8DF 70C0		ldr r7, [pc, #+192] ; 0x20411044
005BD9D4  7038     		strb r0, [r7]

#94
#95
#96		{L:63}
(*) USINT
005BD9D6  2001     		mov r0, #1 ; 1
005BD9D8  F8DF 70BC		ldr r7, [pc, #+188] ; 0x20411045
005BD9DC  7038     		strb r0, [r7]

#97
#98
#99		{L:64}
(*) USINT
005BD9DE  F8DF 707C		ldr r7, [pc, #+124] ; 0x20410F84
005BD9E2  7838     		ldrb r0, [r7]
005BD9E4  F8DF 70B4		ldr r7, [pc, #+180] ; 0x20411048
005BD9E8  6038     		str r0, [r7]

#100
#101
#102		{L:65}
(*) BYTE
005BD9EA  2000     		mov r0, #0 ; 0
005BD9EC  F8DF 70B0		ldr r7, [pc, #+176] ; 0x2041104C
005BD9F0  6038     		str r0, [r7]

#103
#104
#105		{L:66}
(*) DWORD
005BD9F2  E92D 0021		stmdb sp!, { r0, r5 }
005BD9F6  F8DF 7098		ldr r7, [pc, #+152] ; 0x2041103C
005BD9FA  4638     		mov r0, r7
005BD9FC  F8DF 4014		ldr r4, [pc, #+20] ; 0x48E425
005BDA00  F044 0401		orr r4, r4, #1
005BDA04  47A0     		blx r4
005BDA06  E8BD 0021		ldmia sp!, { r0, r5 }

005BDA0A  E8BD 4DF0		ldmia sp!, { r4, r5, r6, r7, r8, r10, fp, lr }

005BDA0E  4770     		bx lr

005BDA10  0048D84D		; 0x0048D84D
005BDA14  0048E425		; 0x0048E425
005BDA18  005BA33A		; 0x005BA33A
005BDA1C  005BBA80		; 0x005BBA80
005BDA20  20410F2C		; 0x20410F2C
005BDA24  20410F2D		; 0x20410F2D
005BDA28  20410F31		; 0x20410F31
005BDA2C  20410F34		; 0x20410F34
005BDA30  20410F38		; 0x20410F38
005BDA34  20410F3C		; 0x20410F3C
005BDA38  20410F40		; 0x20410F40
005BDA3C  20410F54		; 0x20410F54
005BDA40  20410F55		; 0x20410F55
005BDA44  20410F59		; 0x20410F59
005BDA48  20410F5C		; 0x20410F5C
005BDA4C  20410F60		; 0x20410F60
005BDA50  20410F64		; 0x20410F64
005BDA54  20410F68		; 0x20410F68
005BDA58  20410F7C		; 0x20410F7C
005BDA5C  20410F84		; 0x20410F84
005BDA60  20410F8C		; 0x20410F8C
005BDA64  20410F94		; 0x20410F94
005BDA68  20410F9C		; 0x20410F9C
005BDA6C  20411015		; 0x20411015
005BDA70  20411016		; 0x20411016
005BDA74  20411018		; 0x20411018
005BDA78  2041101A		; 0x2041101A
005BDA7C  2041101C		; 0x2041101C
005BDA80  2041102C		; 0x2041102C
005BDA84  20411034		; 0x20411034
005BDA88  20411035		; 0x20411035
005BDA8C  20411038		; 0x20411038
005BDA90  2041103C		; 0x2041103C
005BDA94  20411044		; 0x20411044
005BDA98  20411045		; 0x20411045
005BDA9C  20411048		; 0x20411048
005BDAA0  2041104C		; 0x2041104C
005BDAA4  20412E51		; 0x20412E51

END_PROGRAM


**************************************************
	Target variable image generation
**************************************************


*** INPUT:
005BDAA8  4770     		bx lr


*** OUTPUT:
005BDAAA  4770     		bx lr



**************************************************
	Task Back init code
**************************************************

005BDAAC  E92D 4DF0		stmdb sp!, { r4, r5, r6, r7, r8, r10, fp, lr }

005BDAB0  F8DF 701C		ldr r7, [pc, #+28] ; 0x20410E81
005BDAB4  2080     		mov r0, #0x80
005BDAB6  7038     		strb r0, [r7]

005BDAB8  F8DF 7018		ldr r7, [pc, #+24] ; 0x20410F14
005BDABC  2001     		mov r0, #0x01
005BDABE  7038     		strb r0, [r7]

005BDAC0  F8DF 7014		ldr r7, [pc, #+20] ; 0x2041103C
005BDAC4  2001     		mov r0, #0x01
005BDAC6  7038     		strb r0, [r7]

005BDAC8  E8BD 4DF0		ldmia sp!, { r4, r5, r6, r7, r8, r10, fp, lr }

005BDACC  4770     		bx lr

005BDAD0  20410E81		; 0x20410E81
005BDAD4  20410F14		; 0x20410F14
005BDAD8  2041103C		; 0x2041103C


**************************************************
VIRTUAL TABLES:

--------------------------------------------------------
VIRTUAL TABLES INDEXES
--------------------------------------------------------


**************************************************
	Global init code
**************************************************

005BDAF0  E92D 4DF0		stmdb sp!, { r4, r5, r6, r7, r8, r10, fp, lr }

005BDAF4  E8BD 4DF0		ldmia sp!, { r4, r5, r6, r7, r8, r10, fp, lr }

005BDAF8  4770     		bx lr



********************************************
MEMORY MAP
********************************************

Code area type:			main code
Start code area:		  5BA000h
End code area:			  5BDB00h
Code size:			    3B00h

Start local data area:		20410E28h
End local data area:		20411054h
Local data size:		     22Ch

Start retentive data area:	20410A3Ch
End retentive data area:	20410A3Ch
Retentive data size:		       0h

Start bit data area:		       0h
End bit data area:		       0h
Bit data size:			       0h



********************************************
CODE ID:                                5649E6A5
DEBUG MEMO ID:                          00006A12
FULL MEMO ID:                           0000C2D2
********************************************
